0100 :> 0100: 00        NOP
0101: C3 50 01  JP   0150
0104: CE ED     ADC  A,ED
0106: 66        LD   H,(HL)
0107: 66        LD   H,(HL)
0108: CC 0D 00  CALL Z,000D
010B: 0B        DEC  BC
010C: 03        INC  BC
010D: 73        LD   (HL),E
010E: 00        NOP
010F: 83        ADD  A,E
0110: 00        NOP
0111: 0C        INC  C
0112: 00        NOP
0113: 0D        DEC  C
0114: 00        NOP
0115: 08 11 1F  LD (1F11),SP
0118: 88        ADC  A,B
0119: 89        ADC  A,C
011A: 00        NOP
011B: 0E DC     LD   C,DC
011D: CC 6E E6  CALL Z,E66E
0120: DD        NOP
0121: DD        NOP
0122: D9        RETI
0123: 99        SBC  A,C
0124: BB        CP   E
0125: BB        CP   E
0126: 67        LD   H,A
0127: 63        LD   H,E
0128: 6E        LD   L,(HL)
0129: 0E EC     LD   C,EC
012B: CC DD DC  CALL Z,DCDD
012E: 99        SBC  A,C
012F: 9F        SBC  A,A
0130: BB        CP   E
0131: B9        CP   C
0132: 33        INC  SP
0133: 3E 54     LD   A,54
0135: 45        LD   B,L
0136: 54        LD   D,H
0137: 52        LD   D,D
0138: 49        LD   C,C
0139: 53        LD   D,E
013A: 00        NOP
013B: 00        NOP
013C: 00        NOP
013D: 00        NOP
013E: 00        NOP
013F: 00        NOP
0140: 00        NOP
0141: 00        NOP
0142: 00        NOP
0143: 00        NOP
0144: 00        NOP
0145: 00        NOP
0146: 00        NOP
0147: 00        NOP
0148: 00        NOP
0149: 00        NOP
014A: 00        NOP
014B: 01 00 0B  LD   BC,0B00
014E: 89        ADC  A,C
014F: B5        OR   L
0150: C3 8B 02  JP   028B
0153: CD 2B 2A  CALL 2A2B
0156: F0 41     LD A,(41)
0158: E6 03     AND  03
015A: 20 FA     JR   NZ,FA
015C: 46        LD   B,(HL)
015D: F0 41     LD A,(41)
015F: E6 03     AND  03
0161: 20 FA     JR   NZ,FA
0163: 7E        LD   A,(HL)
0164: A0        AND  B
0165: C9        RET
0166: 7B        LD   A,E
0167: 86        ADD  A,(HL)
0168: 27        DAA
0169: 22        LD (HLI),A
016A: 7A        LD   A,D
016B: 8E        ADC  A,(HL)
016C: 27        DAA
016D: 22        LD (HLI),A
016E: 3E 00     LD   A,00
0170: 8E        ADC  A,(HL)
0171: 27        DAA
0172: 77        LD   (HL),A
0173: 3E 01     LD   A,01
0175: E0 E0     LD (E0),A
0177: D0        RET  NC
0178: 3E 99     LD   A,99
017A: 32        LD (HLD),A
017B: 32        LD (HLD),A
017C: 77        LD   (HL),A
017D: C9        RET
017E: F5        PUSH AF
017F: E5        PUSH HL
0180: D5        PUSH DE
0181: C5        PUSH BC
0182: CD 8E 01  CALL 018E
0185: 3E 01     LD   A,01
0187: E0 CC     LD (CC),A
0189: C1        POP  BC
018A: D1        POP  DE
018B: E1        POP  HL
018C: F1        POP  AF
018D: D9        RETI
018E: F0 CD     LD A,(CD)
0190: EF        RST  28H
0191: 9B        SBC  A,E
0192: 01 C2 01  LD   BC,01C2
0195: C7        RST  0
0196: 01 DD 01  LD   BC,01DD
0199: 3E 28     LD   A,28
019B: F0 E1     LD A,(E1)
019D: FE 07     CP   07
019F: 28        JR   Z,d
01A0: 08 FE 06  LD (06FE),SP
01A3: C8        RET  Z
01A4: 3E 06     LD   A,06
01A6: E0 E1     LD (E1),A
01A8: C9        RET
01A9: F0 01     LD A,(01)
01AB: FE 55     CP   55
01AD: 20 08     JR   NZ,08
01AF: 3E 29     LD   A,29
01B1: E0 CB     LD (CB),A
01B3: 3E 01     LD   A,01
01B5: 18        JR   d
01B6: 08 FE 29  LD (29FE),SP
01B9: C0        RET  NZ
01BA: 3E 55     LD   A,55
01BC: E0 CB     LD (CB),A
01BE: AF        XOR  A
01BF: E0 02     LD (02),A
01C1: C9        RET
01C2: F0 01     LD A,(01)
01C4: E0 D0     LD (D0),A
01C6: C9        RET
01C7: F0 01     LD A,(01)
01C9: E0 D0     LD (D0),A
01CB: F0 CB     LD A,(CB)
01CD: FE 29     CP   29
01CF: C8        RET  Z
01D0: F0 CF     LD A,(CF)
01D2: E0 01     LD (01),A
01D4: 3E FF     LD   A,FF
01D6: E0 CF     LD (CF),A
01D8: 3E 80     LD   A,80
01DA: E0 02     LD (02),A
01DC: C9        RET
01DD: F0 01     LD A,(01)
01DF: E0 D0     LD (D0),A
01E1: F0 CB     LD A,(CB)
01E3: FE 29     CP   29
01E5: C8        RET  Z
01E6: F0 CF     LD A,(CF)
01E8: E0 01     LD (01),A
01EA: FB        EI
01EB: CD 07 0B  CALL 0B07
01EE: 3E 80     LD   A,80
01F0: E0 02     LD (02),A
01F2: C9        RET
01F3: F0 CD     LD A,(CD)
01F5: FE 02     CP   02
01F7: C0        RET  NZ
01F8: AF        XOR  A
01F9: E0 0F     LD (0F),A
01FB: FB        EI
01FC: C9        RET
01FD: F5        PUSH AF
01FE: C5        PUSH BC
01FF: D5        PUSH DE
0200: E5        PUSH HL
0201: F0 CE     LD A,(CE)
0203: A7        AND  A
0204: 28        JR   Z,d
0205: 12        LD   (DE),A
0206: F0 CB     LD A,(CB)
0208: FE 29     CP   29
020A: 20 0C     JR   NZ,0C
020C: AF        XOR  A
020D: E0 CE     LD (CE),A
020F: F0 CF     LD A,(CF)
0211: E0 01     LD (01),A
0213: 21 02 FF  LD   HL,FF02
0216: 36 81     LD   (HL),81
0218: CD 40 22  CALL 2240
021B: CD 2C 24  CALL 242C
021E: CD 17 24  CALL 2417
0221: CD FE 23  CALL 23FE
0224: CD EC 23  CALL 23EC
0227: CD DD 23  CALL 23DD
022A: CD CE 23  CALL 23CE
022D: CD BF 23  CALL 23BF
0230: CD B0 23  CALL 23B0
0233: CD A1 23  CALL 23A1
0236: CD 92 23  CALL 2392
0239: CD 83 23  CALL 2383
023C: CD 58 23  CALL 2358
023F: CD 49 23  CALL 2349
0242: CD 3A 23  CALL 233A
0245: CD 2B 23  CALL 232B
0248: CD 1C 23  CALL 231C
024B: CD 0D 23  CALL 230D
024E: CD FE 22  CALL 22FE
0251: CD 32 1F  CALL 1F32
0254: CD B6 FF  CALL FFB6
0257: CD 2E 19  CALL 192E
025A: FA CE C0  LD A,(C0CE)
025D: A7        AND  A
025E: 28        JR   Z,d
025F: 1A        LD   A,(DE)
0260: F0 98     LD A,(98)
0262: FE 03     CP   03
0264: 20 14     JR   NZ,14
0266: 21 6D 98  LD   HL,986D
0269: CD 9B 24  CALL 249B
026C: 3E 01     LD   A,01
026E: E0 E0     LD (E0),A
0270: 21 6D 9C  LD   HL,9C6D
0273: CD 9B 24  CALL 249B
0276: AF        XOR  A
0277: EA CE C0  LD (C0CE),A
027A: 21 E2 FF  LD   HL,FFE2
027D: 34        INC  (HL)
027E: AF        XOR  A
027F: E0 43     LD (43),A
0281: E0 42     LD (42),A
0283: 3C        INC  A
0284: E0 85     LD (85),A
0286: E1        POP  HL
0287: D1        POP  DE
0288: C1        POP  BC
0289: F1        POP  AF
028A: D9        RETI
028B: AF        XOR  A
028C: 21 FF DF  LD   HL,DFFF
028F: 0E 10     LD   C,10
0291: 06 00     LD   B,00
0293: 32        LD (HLD),A
0294: 05        DEC  B
0295: 20 FC     JR   NZ,FC
0297: 0D        DEC  C
0298: 20 F9     JR   NZ,F9
029A: 3E 01     LD   A,01
029C: F3        DI
029D: E0 0F     LD (0F),A
029F: E0 FF     LD (FF),A
02A1: AF        XOR  A
02A2: E0 42     LD (42),A
02A4: E0 43     LD (43),A
02A6: E0 A4     LD (A4),A
02A8: E0 41     LD (41),A
02AA: E0 01     LD (01),A
02AC: E0 02     LD (02),A
02AE: 3E 80     LD   A,80
02B0: E0 40     LD (40),A
02B2: F0 44     LD A,(44)
02B4: FE 94     CP   94
02B6: 20 FA     JR   NZ,FA
02B8: 3E 03     LD   A,03
02BA: E0 40     LD (40),A
02BC: 3E E4     LD   A,E4
02BE: E0 47     LD (47),A
02C0: E0 48     LD (48),A
02C2: 3E C4     LD   A,C4
02C4: E0 49     LD (49),A
02C6: 21 26 FF  LD   HL,FF26
02C9: 3E 80     LD   A,80
02CB: 32        LD (HLD),A
02CC: 3E FF     LD   A,FF
02CE: 32        LD (HLD),A
02CF: 36 77     LD   (HL),77
02D1: 3E 01     LD   A,01
02D3: EA 00 20  LD (2000),A
02D6: 31 FF CF  LD   SP,CFFF
02D9: AF        XOR  A
02DA: 21 FF DF  LD   HL,DFFF
02DD: 06 00     LD   B,00
02DF: 32        LD (HLD),A
02E0: 05        DEC  B
02E1: 20 FC     JR   NZ,FC
02E3: 21 FF CF  LD   HL,CFFF
02E6: 0E 10     LD   C,10
02E8: 06 00     LD   B,00
02EA: 32        LD (HLD),A
02EB: 05        DEC  B
02EC: 20 FC     JR   NZ,FC
02EE: 0D        DEC  C
02EF: 20 F9     JR   NZ,F9
02F1: 21 FF 9F  LD   HL,9FFF
02F4: 0E 20     LD   C,20
02F6: AF        XOR  A
02F7: 06 00     LD   B,00
02F9: 32        LD (HLD),A
02FA: 05        DEC  B
02FB: 20 FC     JR   NZ,FC
02FD: 0D        DEC  C
02FE: 20 F9     JR   NZ,F9
0300: 21 FF FE  LD   HL,FEFF
0303: 06 00     LD   B,00
0305: 32        LD (HLD),A
0306: 05        DEC  B
0307: 20 FC     JR   NZ,FC
0309: 21 FE FF  LD   HL,FFFE
030C: 06 80     LD   B,80
030E: 32        LD (HLD),A
030F: 05        DEC  B
0310: 20 FC     JR   NZ,FC
0312: 0E B6     LD   C,B6
0314: 06 0C     LD   B,0C
0316: 21 C7 2A  LD   HL,2AC7
0319: 2A        LD A,(HLI)
031A: E2        LD (C),A
031B: 0C        INC  C
031C: 05        DEC  B
031D: 20 FA     JR   NZ,FA
031F: CD E9 27  CALL 27E9
0322: CD F3 7F  CALL 7FF3
0325: 3E 09     LD   A,09
0327: E0 FF     LD (FF),A
0329: 3E 37     LD   A,37
032B: E0 C0     LD (C0),A
032D: 3E 1C     LD   A,1C
032F: E0 C1     LD (C1),A
0331: 3E 24     LD   A,24
0333: E0 E1     LD (E1),A
0335: 3E 80     LD   A,80
0337: E0 40     LD (40),A
0339: FB        EI
033A: AF        XOR  A
033B: E0 0F     LD (0F),A
033D: E0 4A     LD (4A),A
033F: E0 4B     LD (4B),A
0341: E0 06     LD (06),A
0343: CD FA 29  CALL 29FA
0346: CD 77 03  CALL 0377
0349: CD F0 7F  CALL 7FF0
034C: F0 80     LD A,(80)
034E: E6 0F     AND  0F
0350: FE 0F     CP   0F
0352: CA 9A 02  JP   Z,029A
0355: 21 A6 FF  LD   HL,FFA6
0358: 06 02     LD   B,02
035A: 7E        LD   A,(HL)
035B: A7        AND  A
035C: 28        JR   Z,d
035D: 01 35 2C  LD   BC,2C35
0360: 05        DEC  B
0361: 20 F7     JR   NZ,F7
0363: F0 C5     LD A,(C5)
0365: A7        AND  A
0366: 28        JR   Z,d
0367: 04        INC  B
0368: 3E 09     LD   A,09
036A: E0 FF     LD (FF),A
036C: F0 85     LD A,(85)
036E: A7        AND  A
036F: 28        JR   Z,d
0370: FB        EI
0371: AF        XOR  A
0372: E0 85     LD (85),A
0374: C3 43 03  JP   0343
0377: F0 E1     LD A,(E1)
0379: EF        RST  28H
037A: 29        ADD  HL,HL
037B: 1C        INC  E
037C: 3D        DEC  A
037D: 1D        DEC  E
037E: A8        XOR  B
037F: 12        LD   (DE),A
0380: DF        RST  18H
0381: 12        LD   (DE),A
0382: 61        LD   H,C
0383: 1D        DEC  E
0384: 81        ADD  A,C
0385: 1D        DEC  E
0386: 19        ADD  HL,DE
0387: 04        INC  B
0388: E6 04     AND  04
038A: A8        XOR  B
038B: 14        INC  D
038C: F0 14     LD A,(14)
038E: 6B        LD   L,E
038F: 1A        LD   A,(DE)
0390: 1B        DEC  DE
0391: 1E 71     LD   E,71
0393: 1F        RRA
0394: 7A        LD   A,D
0395: 1F        RRA
0396: 89        ADC  A,C
0397: 15        DEC  D
0398: 14        INC  D
0399: 15        DEC  D
039A: DF        RST  18H
039B: 15        DEC  D
039C: 23        INC  HL
039D: 16 8D     LD   D,8D
039F: 16 DE     LD   D,DE
03A1: 16 4F     LD   D,4F
03A3: 17        RLA
03A4: 77        LD   (HL),A
03A5: 19        ADD  HL,DE
03A6: E4        NOP
03A7: 06 99     LD   B,99
03A9: 07        RLCA
03AA: 92        SUB  D
03AB: 08 53 09  LD (0953),SP
03AE: 95        SUB  L
03AF: 0B        DEC  BC
03B0: 4F        LD   C,A
03B1: 0D        DEC  C
03B2: 41        LD   B,C
03B3: 0B        DEC  BC
03B4: 96        SUB  (HL)
03B5: 0D        DEC  C
03B6: 87        ADD  A,A
03B7: 0E 76     LD   C,76
03B9: 11 FD 0D  LD   DE,0DFD
03BC: EE 0E     XOR  0E
03BE: 29        ADD  HL,HL
03BF: 1E 9C     LD   E,9C
03C1: 1E E6     LD   E,E6
03C3: 03        INC  BC
03C4: 10        STOP
03C5: 04        INC  B
03C6: CB        Prefix
03C7: 11 4A 12  LD   DE,124A
03CA: 60        LD   H,B
03CB: 12        LD   (DE),A
03CC: 80        ADD  A,B
03CD: 12        LD   (DE),A
03CE: 34        INC  (HL)
03CF: 06 64     LD   B,64
03D1: 06 17     LD   B,17
03D3: 13        INC  DE
03D4: 69        LD   L,C
03D5: 13        INC  DE
03D6: 88        ADC  A,B
03D7: 13        INC  DE
03D8: B5        OR   L
03D9: 13        INC  DE
03DA: CB        Prefix
03DB: 13        INC  DE
03DC: E2        LD (C),A
03DD: 13        INC  DE
03DE: 19        ADD  HL,DE
03DF: 14        INC  D
03E0: 49        LD   C,C
03E1: 14        INC  D
03E2: 7F        LD   A,A
03E3: 13        INC  DE
03E4: 3E 28     LD   A,28
03E6: CD 74 28  CALL 2874
03E9: CD 2B 28  CALL 282B
03EC: 11 4F 4A  LD   DE,4A4F
03EF: CD 3F 28  CALL 283F
03F2: CD EE 17  CALL 17EE
03F5: 21 00 C3  LD   HL,C300
03F8: 11 D0 64  LD   DE,64D0
03FB: 1A        LD   A,(DE)
03FC: 22        LD (HLI),A
03FD: 13        INC  DE
03FE: 7C        LD   A,H
03FF: FE C4     CP   C4
0401: 20 F8     JR   NZ,F8
0403: 3E D3     LD   A,D3
0405: E0 40     LD (40),A
0407: 3E 7D     LD   A,7D
0409: E0 A6     LD (A6),A
040B: 3E 25     LD   A,25
040D: E0 E1     LD (E1),A
040F: C9        RET
0410: F0 A6     LD A,(A6)
0412: A7        AND  A
0413: C0        RET  NZ
0414: 3E 06     LD   A,06
0416: E0 E1     LD (E1),A
0418: C9        RET
0419: CD 74 28  CALL 2874
041C: AF        XOR  A
041D: E0 E9     LD (E9),A
041F: E0 98     LD (98),A
0421: E0 9C     LD (9C),A
0423: E0 9B     LD (9B),A
0425: E0 FB     LD (FB),A
0427: E0 9F     LD (9F),A
0429: E0 E3     LD (E3),A
042B: E0 E7     LD (E7),A
042D: E0 C7     LD (C7),A
042F: CD F3 22  CALL 22F3
0432: CD A5 26  CALL 26A5
0435: CD 2B 28  CALL 282B
0438: 21 00 C8  LD   HL,C800
043B: 3E 2F     LD   A,2F
043D: 22        LD (HLI),A
043E: 7C        LD   A,H
043F: FE CC     CP   CC
0441: 20 F8     JR   NZ,F8
0443: 21 01 C8  LD   HL,C801
0446: CD FD 26  CALL 26FD
0449: 21 0C C8  LD   HL,C80C
044C: CD FD 26  CALL 26FD
044F: 21 41 CA  LD   HL,CA41
0452: 06 0C     LD   B,0C
0454: 3E 8E     LD   A,8E
0456: 22        LD (HLI),A
0457: 05        DEC  B
0458: 20 FC     JR   NZ,FC
045A: 11 B7 4B  LD   DE,4BB7
045D: CD 3F 28  CALL 283F
0460: CD EE 17  CALL 17EE
0463: 21 00 C0  LD   HL,C000
0466: 36 80     LD   (HL),80
0468: 2C        INC  L
0469: 36 10     LD   (HL),10
046B: 2C        INC  L
046C: 36 58     LD   (HL),58
046E: 3E 03     LD   A,03
0470: EA E8 DF  LD (DFE8),A
0473: 3E D3     LD   A,D3
0475: E0 40     LD (40),A
0477: 3E 07     LD   A,07
0479: E0 E1     LD (E1),A
047B: 3E 7D     LD   A,7D
047D: E0 A6     LD (A6),A
047F: 3E 04     LD   A,04
0481: E0 C6     LD (C6),A
0483: F0 E4     LD A,(E4)
0485: A7        AND  A
0486: C0        RET  NZ
0487: 3E 13     LD   A,13
0489: E0 C6     LD (C6),A
048B: C9        RET
048C: 3E 37     LD   A,37
048E: E0 C0     LD (C0),A
0490: 3E 09     LD   A,09
0492: E0 C2     LD (C2),A
0494: AF        XOR  A
0495: E0 C5     LD (C5),A
0497: E0 B0     LD (B0),A
0499: E0 ED     LD (ED),A
049B: E0 EA     LD (EA),A
049D: 3E 63     LD   A,63
049F: E0 EB     LD (EB),A
04A1: 3E 30     LD   A,30
04A3: E0 EC     LD (EC),A
04A5: F0 E4     LD A,(E4)
04A7: FE 02     CP   02
04A9: 3E 02     LD   A,02
04AB: 20 1A     JR   NZ,1A
04AD: 3E 77     LD   A,77
04AF: E0 C0     LD (C0),A
04B1: 3E 09     LD   A,09
04B3: E0 C3     LD (C3),A
04B5: 3E 02     LD   A,02
04B7: E0 C4     LD (C4),A
04B9: 3E 64     LD   A,64
04BB: E0 EB     LD (EB),A
04BD: 3E 30     LD   A,30
04BF: E0 EC     LD (EC),A
04C1: 3E 11     LD   A,11
04C3: E0 B0     LD (B0),A
04C5: 3E 01     LD   A,01
04C7: E0 E4     LD (E4),A
04C9: 3E 0A     LD   A,0A
04CB: E0 E1     LD (E1),A
04CD: CD 74 28  CALL 2874
04D0: CD 01 28  CALL 2801
04D3: 11 1F 4D  LD   DE,4D1F
04D6: CD 3F 28  CALL 283F
04D9: CD EE 17  CALL 17EE
04DC: 3E D3     LD   A,D3
04DE: E0 40     LD (40),A
04E0: C9        RET
04E1: 3E FF     LD   A,FF
04E3: E0 E9     LD (E9),A
04E5: C9        RET
04E6: F0 A6     LD A,(A6)
04E8: A7        AND  A
04E9: 20 0A     JR   NZ,0A
04EB: 21 C6 FF  LD   HL,FFC6
04EE: 35        DEC  (HL)
04EF: 28        JR   Z,d
04F0: 9B        SBC  A,E
04F1: 3E 7D     LD   A,7D
04F3: E0 A6     LD (A6),A
04F5: CD 07 0B  CALL 0B07
04F8: 3E 55     LD   A,55
04FA: E0 01     LD (01),A
04FC: 3E 80     LD   A,80
04FE: E0 02     LD (02),A
0500: F0 CC     LD A,(CC)
0502: A7        AND  A
0503: 28        JR   Z,d
0504: 0A        LD   A,(BC)
0505: F0 CB     LD A,(CB)
0507: A7        AND  A
0508: 20 3A     JR   NZ,3A
050A: AF        XOR  A
050B: E0 CC     LD (CC),A
050D: 18        JR   d
050E: 67        LD   H,A
050F: F0 81     LD A,(81)
0511: 47        LD   B,A
0512: F0 C5     LD A,(C5)
0514: CB        Prefix
0515: 50        LD   D,B
0516: 20 48     JR   NZ,48
0518: CB        Prefix
0519: 60        LD   H,B
051A: 20 53     JR   NZ,53
051C: CB        Prefix
051D: 68        LD   L,B
051E: 20 54     JR   NZ,54
0520: CB        Prefix
0521: 58        LD   E,B
0522: C8        RET  Z
0523: A7        AND  A
0524: 3E 08     LD   A,08
0526: 28        JR   Z,d
0527: 2C        INC  L
0528: 78        LD   A,B
0529: FE 08     CP   08
052B: C0        RET  NZ
052C: F0 CB     LD A,(CB)
052E: FE 29     CP   29
0530: 28        JR   Z,d
0531: 12        LD   (DE),A
0532: 3E 29     LD   A,29
0534: E0 01     LD (01),A
0536: 3E 81     LD   A,81
0538: E0 02     LD (02),A
053A: F0 CC     LD A,(CC)
053C: A7        AND  A
053D: 28        JR   Z,d
053E: FB        EI
053F: F0 CB     LD A,(CB)
0541: A7        AND  A
0542: 28        JR   Z,d
0543: 32        LD (HLD),A
0544: 3E 2A     LD   A,2A
0546: E0 E1     LD (E1),A
0548: AF        XOR  A
0549: E0 A6     LD (A6),A
054B: E0 C2     LD (C2),A
054D: E0 C3     LD (C3),A
054F: E0 C4     LD (C4),A
0551: E0 E4     LD (E4),A
0553: C9        RET
0554: F5        PUSH AF
0555: F0 80     LD A,(80)
0557: CB        Prefix
0558: 7F        LD   A,A
0559: 28        JR   Z,d
055A: 02        LD   (BC),A
055B: E0 F4     LD (F4),A
055D: F1        POP  AF
055E: 18        JR   d
055F: E6 EE     AND  EE
0561: 01 E0 C5  LD   BC,C5E0
0564: A7        AND  A
0565: 3E 10     LD   A,10
0567: 28        JR   Z,d
0568: 02        LD   (BC),A
0569: 3E 60     LD   A,60
056B: EA 01 C0  LD (C001),A
056E: C9        RET
056F: A7        AND  A
0570: C0        RET  NZ
0571: AF        XOR  A
0572: 18        JR   d
0573: EC        NOP
0574: A7        AND  A
0575: C8        RET  Z
0576: AF        XOR  A
0577: 18        JR   d
0578: E9        JP   (HL)
0579: F0 E4     LD A,(E4)
057B: A7        AND  A
057C: C8        RET  Z
057D: CD 07 0B  CALL 0B07
0580: AF        XOR  A
0581: E0 01     LD (01),A
0583: 3E 80     LD   A,80
0585: E0 02     LD (02),A
0587: F0 81     LD A,(81)
0589: CB        Prefix
058A: 5F        LD   E,A
058B: 28        JR   Z,d
058C: 0D        DEC  C
058D: 3E 33     LD   A,33
058F: E0 01     LD (01),A
0591: 3E 81     LD   A,81
0593: E0 02     LD (02),A
0595: 3E 06     LD   A,06
0597: E0 E1     LD (E1),A
0599: C9        RET
059A: 21 B0 FF  LD   HL,FFB0
059D: F0 E4     LD A,(E4)
059F: FE 02     CP   02
05A1: 06 10     LD   B,10
05A3: 28        JR   Z,d
05A4: 02        LD   (BC),A
05A5: 06 1D     LD   B,1D
05A7: 7E        LD   A,(HL)
05A8: B8        CP   B
05A9: C0        RET  NZ
05AA: 3E 06     LD   A,06
05AC: E0 E1     LD (E1),A
05AE: C9        RET
05AF: F0 E4     LD A,(E4)
05B1: A7        AND  A
05B2: C8        RET  Z
05B3: F0 E9     LD A,(E9)
05B5: FE FF     CP   FF
05B7: C8        RET  Z
05B8: F0 EA     LD A,(EA)
05BA: A7        AND  A
05BB: 28        JR   Z,d
05BC: 05        DEC  B
05BD: 3D        DEC  A
05BE: E0 EA     LD (EA),A
05C0: 18        JR   d
05C1: 1C        INC  E
05C2: F0 EB     LD A,(EB)
05C4: 67        LD   H,A
05C5: F0 EC     LD A,(EC)
05C7: 6F        LD   L,A
05C8: 2A        LD A,(HLI)
05C9: 47        LD   B,A
05CA: F0 ED     LD A,(ED)
05CC: A8        XOR  B
05CD: A0        AND  B
05CE: E0 81     LD (81),A
05D0: 78        LD   A,B
05D1: E0 ED     LD (ED),A
05D3: 2A        LD A,(HLI)
05D4: E0 EA     LD (EA),A
05D6: 7C        LD   A,H
05D7: E0 EB     LD (EB),A
05D9: 7D        LD   A,L
05DA: E0 EC     LD (EC),A
05DC: 18        JR   d
05DD: 03        INC  BC
05DE: AF        XOR  A
05DF: E0 81     LD (81),A
05E1: F0 80     LD A,(80)
05E3: E0 EE     LD (EE),A
05E5: F0 ED     LD A,(ED)
05E7: E0 80     LD (80),A
05E9: C9        RET
05EA: AF        XOR  A
05EB: E0 ED     LD (ED),A
05ED: 18        JR   d
05EE: EF        RST  28H
05EF: C9        RET
05F0: F0 E4     LD A,(E4)
05F2: A7        AND  A
05F3: C8        RET  Z
05F4: F0 E9     LD A,(E9)
05F6: FE FF     CP   FF
05F8: C0        RET  NZ
05F9: F0 80     LD A,(80)
05FB: 47        LD   B,A
05FC: F0 ED     LD A,(ED)
05FE: B8        CP   B
05FF: 28        JR   Z,d
0600: 19        ADD  HL,DE
0601: F0 EB     LD A,(EB)
0603: 67        LD   H,A
0604: F0 EC     LD A,(EC)
0606: 6F        LD   L,A
0607: F0 ED     LD A,(ED)
0609: 22        LD (HLI),A
060A: F0 EA     LD A,(EA)
060C: 22        LD (HLI),A
060D: 7C        LD   A,H
060E: E0 EB     LD (EB),A
0610: 7D        LD   A,L
0611: E0 EC     LD (EC),A
0613: 78        LD   A,B
0614: E0 ED     LD (ED),A
0616: AF        XOR  A
0617: E0 EA     LD (EA),A
0619: C9        RET
061A: F0 EA     LD A,(EA)
061C: 3C        INC  A
061D: E0 EA     LD (EA),A
061F: C9        RET
0620: F0 E4     LD A,(E4)
0622: A7        AND  A
0623: C8        RET  Z
0624: F0 E9     LD A,(E9)
0626: A7        AND  A
0627: C0        RET  NZ
0628: F0 EE     LD A,(EE)
062A: E0 80     LD (80),A
062C: C9        RET
062D: 21 02 FF  LD   HL,FF02
0630: CB        Prefix
0631: FE 18     CP   18
0633: 0A        LD   A,(BC)
0634: 3E 03     LD   A,03
0636: E0 CD     LD (CD),A
0638: F0 CB     LD A,(CB)
063A: FE 29     CP   29
063C: 20 EF     JR   NZ,EF
063E: CD B3 14  CALL 14B3
0641: 3E 80     LD   A,80
0643: EA 10 C2  LD (C210),A
0646: CD C5 26  CALL 26C5
0649: E0 CE     LD (CE),A
064B: AF        XOR  A
064C: E0 01     LD (01),A
064E: E0 CF     LD (CF),A
0650: E0 DC     LD (DC),A
0652: E0 D2     LD (D2),A
0654: E0 D3     LD (D3),A
0656: E0 D4     LD (D4),A
0658: E0 D5     LD (D5),A
065A: E0 E3     LD (E3),A
065C: CD F3 7F  CALL 7FF3
065F: 3E 2B     LD   A,2B
0661: E0 E1     LD (E1),A
0663: C9        RET
0664: F0 CB     LD A,(CB)
0666: FE 29     CP   29
0668: 28        JR   Z,d
0669: 16 F0     LD   D,F0
066B: F0 A7     LD A,(A7)
066D: 28        JR   Z,d
066E: 1E AF     LD   E,AF
0670: E0 F0     LD (F0),A
0672: 11 01 C2  LD   DE,C201
0675: CD F6 14  CALL 14F6
0678: CD 7B 15  CALL 157B
067B: CD C5 26  CALL 26C5
067E: 18        JR   d
067F: 0D        DEC  C
0680: F0 81     LD A,(81)
0682: CB        Prefix
0683: 47        LD   B,A
0684: 20 07     JR   NZ,07
0686: CB        Prefix
0687: 5F        LD   E,A
0688: 20 03     JR   NZ,03
068A: CD 14 15  CALL 1514
068D: F0 CB     LD A,(CB)
068F: FE 29     CP   29
0691: 28        JR   Z,d
0692: 1E F0     LD   E,F0
0694: CC A7 C8  CALL Z,C8A7
0697: AF        XOR  A
0698: E0 CC     LD (CC),A
069A: 3E 39     LD   A,39
069C: E0 CF     LD (CF),A
069E: F0 D0     LD A,(D0)
06A0: FE 50     CP   50
06A2: 28        JR   Z,d
06A3: 2D        DEC  L
06A4: 47        LD   B,A
06A5: F0 C1     LD A,(C1)
06A7: B8        CP   B
06A8: C8        RET  Z
06A9: 78        LD   A,B
06AA: E0 C1     LD (C1),A
06AC: 3E 01     LD   A,01
06AE: E0 F0     LD (F0),A
06B0: C9        RET
06B1: F0 81     LD A,(81)
06B3: CB        Prefix
06B4: 5F        LD   E,A
06B5: 20 22     JR   NZ,22
06B7: CB        Prefix
06B8: 47        LD   B,A
06B9: 20 1E     JR   NZ,1E
06BB: F0 CC     LD A,(CC)
06BD: A7        AND  A
06BE: C8        RET  Z
06BF: AF        XOR  A
06C0: E0 CC     LD (CC),A
06C2: F0 CF     LD A,(CF)
06C4: FE 50     CP   50
06C6: 28        JR   Z,d
06C7: 09        ADD  HL,BC
06C8: F0 C1     LD A,(C1)
06CA: E0 CF     LD (CF),A
06CC: 3E 01     LD   A,01
06CE: E0 CE     LD (CE),A
06D0: C9        RET
06D1: CD EE 17  CALL 17EE
06D4: 3E 16     LD   A,16
06D6: E0 E1     LD (E1),A
06D8: C9        RET
06D9: 3E 50     LD   A,50
06DB: 18        JR   d
06DC: ED        Prefix
06DD: 21 02 FF  LD   HL,FF02
06E0: CB        Prefix
06E1: FE 18     CP   18
06E3: 1F        RRA
06E4: 3E 03     LD   A,03
06E6: E0 CD     LD (CD),A
06E8: F0 CB     LD A,(CB)
06EA: FE 29     CP   29
06EC: 20 EF     JR   NZ,EF
06EE: CD 10 0B  CALL 0B10
06F1: CD 10 0B  CALL 0B10
06F4: CD 10 0B  CALL 0B10
06F7: 06 00     LD   B,00
06F9: 21 00 C3  LD   HL,C300
06FC: CD 10 0B  CALL 0B10
06FF: 22        LD (HLI),A
0700: 05        DEC  B
0701: 20 F9     JR   NZ,F9
0703: CD 74 28  CALL 2874
0706: CD 01 28  CALL 2801
0709: 11 5C 52  LD   DE,525C
070C: CD 3F 28  CALL 283F
070F: CD EE 17  CALL 17EE
0712: 3E 2F     LD   A,2F
0714: CD 38 20  CALL 2038
0717: 3E 03     LD   A,03
0719: E0 CE     LD (CE),A
071B: AF        XOR  A
071C: E0 01     LD (01),A
071E: E0 CF     LD (CF),A
0720: E0 DC     LD (DC),A
0722: E0 D2     LD (D2),A
0724: E0 D3     LD (D3),A
0726: E0 D4     LD (D4),A
0728: E0 D5     LD (D5),A
072A: E0 E3     LD (E3),A
072C: E0 CC     LD (CC),A
072E: 21 00 C4  LD   HL,C400
0731: 06 0A     LD   B,0A
0733: 3E 28     LD   A,28
0735: 22        LD (HLI),A
0736: 05        DEC  B
0737: 20 FC     JR   NZ,FC
0739: F0 D6     LD A,(D6)
073B: A7        AND  A
073C: C2 DA 07  JP   NZ,07DA
073F: CD 7B 15  CALL 157B
0742: 3E D3     LD   A,D3
0744: E0 40     LD (40),A
0746: 21 80 C0  LD   HL,C080
0749: 11 72 07  LD   DE,0772
074C: 06 20     LD   B,20
074E: CD 92 07  CALL 0792
0751: 21 00 C2  LD   HL,C200
0754: 11 41 27  LD   DE,2741
0757: 0E 02     LD   C,02
0759: CD DA 17  CALL 17DA
075C: CD 7B 08  CALL 087B
075F: CD C5 26  CALL 26C5
0762: AF        XOR  A
0763: E0 D7     LD (D7),A
0765: E0 D8     LD (D8),A
0767: E0 D9     LD (D9),A
0769: E0 DA     LD (DA),A
076B: E0 DB     LD (DB),A
076D: 3E 17     LD   A,17
076F: E0 E1     LD (E1),A
0771: C9        RET
0772: 40        LD   B,B
0773: 28        JR   Z,d
0774: AE        XOR  (HL)
0775: 00        NOP
0776: 40        LD   B,B
0777: 30        JR   NC,d
0778: AE        XOR  (HL)
0779: 20 48     JR   NZ,48
077B: 28        JR   Z,d
077C: AF        XOR  A
077D: 00        NOP
077E: 48        LD   C,B
077F: 30        JR   NC,d
0780: AF        XOR  A
0781: 20 78     JR   NZ,78
0783: 28        JR   Z,d
0784: C0        RET  NZ
0785: 00        NOP
0786: 78        LD   A,B
0787: 30        JR   NC,d
0788: C0        RET  NZ
0789: 20 80     JR   NZ,80
078B: 28        JR   Z,d
078C: C1        POP  BC
078D: 00        NOP
078E: 80        ADD  A,B
078F: 30        JR   NC,d
0790: C1        POP  BC
0791: 20 1A     JR   NZ,1A
0793: 22        LD (HLI),A
0794: 13        INC  DE
0795: 05        DEC  B
0796: 20 FA     JR   NZ,FA
0798: C9        RET
0799: F0 CB     LD A,(CB)
079B: FE 29     CP   29
079D: 28        JR   Z,d
079E: 23        INC  HL
079F: F0 CC     LD A,(CC)
07A1: A7        AND  A
07A2: 28        JR   Z,d
07A3: 13        INC  DE
07A4: F0 D0     LD A,(D0)
07A6: FE 60     CP   60
07A8: 28        JR   Z,d
07A9: 2D        DEC  L
07AA: FE 06     CP   06
07AC: 30        JR   NC,d
07AD: 02        LD   (BC),A
07AE: E0 AC     LD (AC),A
07B0: F0 AD     LD A,(AD)
07B2: E0 CF     LD (CF),A
07B4: AF        XOR  A
07B5: E0 CC     LD (CC),A
07B7: 11 10 C2  LD   DE,C210
07BA: CD CA 17  CALL 17CA
07BD: 21 AD FF  LD   HL,FFAD
07C0: 18        JR   d
07C1: 68        LD   L,B
07C2: F0 81     LD A,(81)
07C4: CB        Prefix
07C5: 5F        LD   E,A
07C6: 28        JR   Z,d
07C7: 04        INC  B
07C8: 3E 60     LD   A,60
07CA: 18        JR   d
07CB: 4D        LD   C,L
07CC: F0 CC     LD A,(CC)
07CE: A7        AND  A
07CF: 28        JR   Z,d
07D0: 50        LD   D,B
07D1: F0 CF     LD A,(CF)
07D3: FE 60     CP   60
07D5: 20 38     JR   NZ,38
07D7: CD EE 17  CALL 17EE
07DA: F0 D6     LD A,(D6)
07DC: A7        AND  A
07DD: 20 18     JR   NZ,18
07DF: 3E 18     LD   A,18
07E1: E0 E1     LD (E1),A
07E3: F0 CB     LD A,(CB)
07E5: FE 29     CP   29
07E7: C0        RET  NZ
07E8: AF        XOR  A
07E9: E0 A0     LD (A0),A
07EB: 3E 06     LD   A,06
07ED: 11 E0 FF  LD   DE,FFE0
07F0: 21 A2 C9  LD   HL,C9A2
07F3: CD C3 1B  CALL 1BC3
07F6: C9        RET
07F7: F0 CB     LD A,(CB)
07F9: FE 29     CP   29
07FB: C2 95 08  JP   NZ,0895
07FE: AF        XOR  A
07FF: E0 A0     LD (A0),A
0801: 3E 06     LD   A,06
0803: 11 E0 FF  LD   DE,FFE0
0806: 21 A2 C9  LD   HL,C9A2
0809: CD C3 1B  CALL 1BC3
080C: C3 95 08  JP   0895
080F: F0 D0     LD A,(D0)
0811: FE 06     CP   06
0813: 30        JR   NC,d
0814: 02        LD   (BC),A
0815: E0 AD     LD (AD),A
0817: F0 AC     LD A,(AC)
0819: E0 CF     LD (CF),A
081B: AF        XOR  A
081C: E0 CC     LD (CC),A
081E: 3C        INC  A
081F: E0 CE     LD (CE),A
0821: 11 00 C2  LD   DE,C200
0824: CD CA 17  CALL 17CA
0827: 21 AC FF  LD   HL,FFAC
082A: 7E        LD   A,(HL)
082B: CB        Prefix
082C: 60        LD   H,B
082D: 20 14     JR   NZ,14
082F: CB        Prefix
0830: 68        LD   L,B
0831: 20 22     JR   NZ,22
0833: CB        Prefix
0834: 70        LD   (HL),B
0835: 20 24     JR   NZ,24
0837: CB        Prefix
0838: 78        LD   A,B
0839: 28        JR   Z,d
083A: 13        INC  DE
083B: FE 03     CP   03
083D: 30        JR   NC,d
083E: 0F        RRCA
083F: C6 03     ADD  A,03
0841: 18        JR   d
0842: 05        DEC  B
0843: FE 05     CP   05
0845: 28        JR   Z,d
0846: 07        RLCA
0847: 3C        INC  A
0848: 77        LD   (HL),A
0849: 3E 01     LD   A,01
084B: EA E0 DF  LD (DFE0),A
084E: CD 7B 08  CALL 087B
0851: CD C5 26  CALL 26C5
0854: C9        RET
0855: A7        AND  A
0856: 28        JR   Z,d
0857: F6 3D     OR   3D
0859: 18        JR   d
085A: ED        Prefix
085B: FE 03     CP   03
085D: 38        JR   C,d
085E: EF        RST  28H
085F: D6 03     SUB  03
0861: 18        JR   d
0862: E5        PUSH HL
0863: 40        LD   B,B
0864: 60        LD   H,B
0865: 40        LD   B,B
0866: 70        LD   (HL),B
0867: 40        LD   B,B
0868: 80        ADD  A,B
0869: 50        LD   D,B
086A: 60        LD   H,B
086B: 50        LD   D,B
086C: 70        LD   (HL),B
086D: 50        LD   D,B
086E: 80        ADD  A,B
086F: 78        LD   A,B
0870: 60        LD   H,B
0871: 78        LD   A,B
0872: 70        LD   (HL),B
0873: 78        LD   A,B
0874: 80        ADD  A,B
0875: 88        ADC  A,B
0876: 60        LD   H,B
0877: 88        ADC  A,B
0878: 70        LD   (HL),B
0879: 88        ADC  A,B
087A: 80        ADD  A,B
087B: F0 AC     LD A,(AC)
087D: 11 01 C2  LD   DE,C201
0880: 21 63 08  LD   HL,0863
0883: CD B9 17  CALL 17B9
0886: F0 AD     LD A,(AD)
0888: 11 11 C2  LD   DE,C211
088B: 21 6F 08  LD   HL,086F
088E: CD B9 17  CALL 17B9
0891: C9        RET
0892: CD 74 28  CALL 2874
0895: AF        XOR  A
0896: EA 10 C2  LD (C210),A
0899: E0 98     LD (98),A
089B: E0 9C     LD (9C),A
089D: E0 9B     LD (9B),A
089F: E0 FB     LD (FB),A
08A1: E0 9F     LD (9F),A
08A3: E0 CC     LD (CC),A
08A5: E0 01     LD (01),A
08A7: E0 CE     LD (CE),A
08A9: E0 D0     LD (D0),A
08AB: E0 CF     LD (CF),A
08AD: E0 D1     LD (D1),A
08AF: CD A5 26  CALL 26A5
08B2: CD F3 22  CALL 22F3
08B5: CD 4D 20  CALL 204D
08B8: AF        XOR  A
08B9: E0 E3     LD (E3),A
08BB: E0 E7     LD (E7),A
08BD: CD EE 17  CALL 17EE
08C0: 11 C4 53  LD   DE,53C4
08C3: D5        PUSH DE
08C4: 3E 01     LD   A,01
08C6: E0 A9     LD (A9),A
08C8: E0 C5     LD (C5),A
08CA: CD 3F 28  CALL 283F
08CD: D1        POP  DE
08CE: 21 00 9C  LD   HL,9C00
08D1: CD 42 28  CALL 2842
08D4: 11 8D 28  LD   DE,288D
08D7: 21 63 9C  LD   HL,9C63
08DA: 0E 0A     LD   C,0A
08DC: CD D8 1F  CALL 1FD8
08DF: 21 00 C2  LD   HL,C200
08E2: 11 13 27  LD   DE,2713
08E5: CD 0A 27  CALL 270A
08E8: 21 10 C2  LD   HL,C210
08EB: 11 1B 27  LD   DE,271B
08EE: CD 0A 27  CALL 270A
08F1: 21 51 99  LD   HL,9951
08F4: 3E 30     LD   A,30
08F6: E0 9E     LD (9E),A
08F8: 36 00     LD   (HL),00
08FA: 2D        DEC  L
08FB: 36 03     LD   (HL),03
08FD: CD 43 1B  CALL 1B43
0900: AF        XOR  A
0901: E0 A0     LD (A0),A
0903: F0 CB     LD A,(CB)
0905: FE 29     CP   29
0907: 11 43 09  LD   DE,0943
090A: F0 AC     LD A,(AC)
090C: 28        JR   Z,d
090D: 05        DEC  B
090E: 11 33 09  LD   DE,0933
0911: F0 AD     LD A,(AD)
0913: 21 B0 98  LD   HL,98B0
0916: 77        LD   (HL),A
0917: 26 9C     LD   H,9C
0919: 77        LD   (HL),A
091A: 21 80 C0  LD   HL,C080
091D: 06 10     LD   B,10
091F: CD 92 07  CALL 0792
0922: 3E 77     LD   A,77
0924: E0 C0     LD (C0),A
0926: 3E D3     LD   A,D3
0928: E0 40     LD (40),A
092A: 3E 19     LD   A,19
092C: E0 E1     LD (E1),A
092E: 3E 01     LD   A,01
0930: E0 CD     LD (CD),A
0932: C9        RET
0933: 18        JR   d
0934: 84        ADD  A,H
0935: C0        RET  NZ
0936: 00        NOP
0937: 18        JR   d
0938: 8C        ADC  A,H
0939: C0        RET  NZ
093A: 20 20     JR   NZ,20
093C: 84        ADD  A,H
093D: C1        POP  BC
093E: 00        NOP
093F: 20 8C     JR   NZ,8C
0941: C1        POP  BC
0942: 20 18     JR   NZ,18
0944: 84        ADD  A,H
0945: AE        XOR  (HL)
0946: 00        NOP
0947: 18        JR   d
0948: 8C        ADC  A,H
0949: AE        XOR  (HL)
094A: 20 20     JR   NZ,20
094C: 84        ADD  A,H
094D: AF        XOR  A
094E: 00        NOP
094F: 20 8C     JR   NZ,8C
0951: AF        XOR  A
0952: 20 3E     JR   NZ,3E
0954: 08 E0 FF  LD (FFE0),SP
0957: AF        XOR  A
0958: E0 0F     LD (0F),A
095A: F0 CB     LD A,(CB)
095C: FE 29     CP   29
095E: C2 65 0A  JP   NZ,0A65
0961: CD 07 0B  CALL 0B07
0964: CD 07 0B  CALL 0B07
0967: AF        XOR  A
0968: E0 CC     LD (CC),A
096A: 3E 29     LD   A,29
096C: E0 01     LD (01),A
096E: 3E 81     LD   A,81
0970: E0 02     LD (02),A
0972: F0 CC     LD A,(CC)
0974: A7        AND  A
0975: 28        JR   Z,d
0976: FB        EI
0977: F0 01     LD A,(01)
0979: FE 55     CP   55
097B: 20 E4     JR   NZ,E4
097D: 11 16 00  LD   DE,0016
0980: 0E 0A     LD   C,0A
0982: 21 02 C9  LD   HL,C902
0985: 06 0A     LD   B,0A
0987: AF        XOR  A
0988: E0 CC     LD (CC),A
098A: CD 07 0B  CALL 0B07
098D: 2A        LD A,(HLI)
098E: E0 01     LD (01),A
0990: 3E 81     LD   A,81
0992: E0 02     LD (02),A
0994: F0 CC     LD A,(CC)
0996: A7        AND  A
0997: 28        JR   Z,d
0998: FB        EI
0999: 05        DEC  B
099A: 20 EB     JR   NZ,EB
099C: 19        ADD  HL,DE
099D: 0D        DEC  C
099E: 20 E5     JR   NZ,E5
09A0: F0 AC     LD A,(AC)
09A2: FE 05     CP   05
09A4: 28        JR   Z,d
09A5: 3D        DEC  A
09A6: 21 22 CA  LD   HL,CA22
09A9: 11 40 00  LD   DE,0040
09AC: 19        ADD  HL,DE
09AD: 3C        INC  A
09AE: FE 05     CP   05
09B0: 20 FA     JR   NZ,FA
09B2: 11 22 CA  LD   DE,CA22
09B5: 0E 0A     LD   C,0A
09B7: 06 0A     LD   B,0A
09B9: 1A        LD   A,(DE)
09BA: 22        LD (HLI),A
09BB: 1C        INC  E
09BC: 05        DEC  B
09BD: 20 FA     JR   NZ,FA
09BF: D5        PUSH DE
09C0: 11 D6 FF  LD   DE,FFD6
09C3: 19        ADD  HL,DE
09C4: D1        POP  DE
09C5: E5        PUSH HL
09C6: 21 D6 FF  LD   HL,FFD6
09C9: 19        ADD  HL,DE
09CA: E5        PUSH HL
09CB: D1        POP  DE
09CC: E1        POP  HL
09CD: 0D        DEC  C
09CE: 20 E7     JR   NZ,E7
09D0: 11 D6 FF  LD   DE,FFD6
09D3: 06 0A     LD   B,0A
09D5: 7C        LD   A,H
09D6: FE C8     CP   C8
09D8: 28        JR   Z,d
09D9: 09        ADD  HL,BC
09DA: 3E 2F     LD   A,2F
09DC: 22        LD (HLI),A
09DD: 05        DEC  B
09DE: 20 FC     JR   NZ,FC
09E0: 19        ADD  HL,DE
09E1: 18        JR   d
09E2: F0 CD     LD A,(CD)
09E4: 07        RLCA
09E5: 0B        DEC  BC
09E6: CD 07 0B  CALL 0B07
09E9: AF        XOR  A
09EA: E0 CC     LD (CC),A
09EC: 3E 29     LD   A,29
09EE: E0 01     LD (01),A
09F0: 3E 81     LD   A,81
09F2: E0 02     LD (02),A
09F4: F0 CC     LD A,(CC)
09F6: A7        AND  A
09F7: 28        JR   Z,d
09F8: FB        EI
09F9: F0 01     LD A,(01)
09FB: FE 55     CP   55
09FD: 20 E4     JR   NZ,E4
09FF: 21 00 C3  LD   HL,C300
0A02: 06 00     LD   B,00
0A04: AF        XOR  A
0A05: E0 CC     LD (CC),A
0A07: 2A        LD A,(HLI)
0A08: CD 07 0B  CALL 0B07
0A0B: E0 01     LD (01),A
0A0D: 3E 81     LD   A,81
0A0F: E0 02     LD (02),A
0A11: F0 CC     LD A,(CC)
0A13: A7        AND  A
0A14: 28        JR   Z,d
0A15: FB        EI
0A16: 04        INC  B
0A17: 20 EB     JR   NZ,EB
0A19: CD 07 0B  CALL 0B07
0A1C: CD 07 0B  CALL 0B07
0A1F: AF        XOR  A
0A20: E0 CC     LD (CC),A
0A22: 3E 30     LD   A,30
0A24: E0 01     LD (01),A
0A26: 3E 81     LD   A,81
0A28: E0 02     LD (02),A
0A2A: F0 CC     LD A,(CC)
0A2C: A7        AND  A
0A2D: 28        JR   Z,d
0A2E: FB        EI
0A2F: F0 01     LD A,(01)
0A31: FE 56     CP   56
0A33: 20 E4     JR   NZ,E4
0A35: CD FB 0A  CALL 0AFB
0A38: 3E 09     LD   A,09
0A3A: E0 FF     LD (FF),A
0A3C: 3E 1C     LD   A,1C
0A3E: E0 E1     LD (E1),A
0A40: 3E 02     LD   A,02
0A42: E0 E3     LD (E3),A
0A44: 3E 03     LD   A,03
0A46: E0 CD     LD (CD),A
0A48: F0 CB     LD A,(CB)
0A4A: FE 29     CP   29
0A4C: 28        JR   Z,d
0A4D: 05        DEC  B
0A4E: 21 02 FF  LD   HL,FF02
0A51: CB        Prefix
0A52: FE 21     CP   21
0A54: 00        NOP
0A55: C3 2A EA  JP   EA2A
0A58: 03        INC  BC
0A59: C2 2A EA  JP   NZ,EA2A
0A5C: 13        INC  DE
0A5D: C2 7C E0  JP   NZ,E07C
0A60: AF        XOR  A
0A61: 7D        LD   A,L
0A62: E0 B0     LD (B0),A
0A64: C9        RET
0A65: F0 AD     LD A,(AD)
0A67: 3C        INC  A
0A68: 47        LD   B,A
0A69: 21 42 CA  LD   HL,CA42
0A6C: 11 C0 FF  LD   DE,FFC0
0A6F: 05        DEC  B
0A70: 28        JR   Z,d
0A71: 03        INC  BC
0A72: 19        ADD  HL,DE
0A73: 18        JR   d
0A74: FA CD 07  LD A,(07CD)
0A77: 0B        DEC  BC
0A78: AF        XOR  A
0A79: E0 CC     LD (CC),A
0A7B: 3E 55     LD   A,55
0A7D: E0 01     LD (01),A
0A7F: 3E 80     LD   A,80
0A81: E0 02     LD (02),A
0A83: F0 CC     LD A,(CC)
0A85: A7        AND  A
0A86: 28        JR   Z,d
0A87: FB        EI
0A88: F0 01     LD A,(01)
0A8A: FE 29     CP   29
0A8C: 20 E7     JR   NZ,E7
0A8E: 11 16 00  LD   DE,0016
0A91: 0E 0A     LD   C,0A
0A93: 06 0A     LD   B,0A
0A95: AF        XOR  A
0A96: E0 CC     LD (CC),A
0A98: E0 01     LD (01),A
0A9A: 3E 80     LD   A,80
0A9C: E0 02     LD (02),A
0A9E: F0 CC     LD A,(CC)
0AA0: A7        AND  A
0AA1: 28        JR   Z,d
0AA2: FB        EI
0AA3: F0 01     LD A,(01)
0AA5: 22        LD (HLI),A
0AA6: 05        DEC  B
0AA7: 20 EC     JR   NZ,EC
0AA9: 19        ADD  HL,DE
0AAA: 0D        DEC  C
0AAB: 20 E6     JR   NZ,E6
0AAD: CD 07 0B  CALL 0B07
0AB0: AF        XOR  A
0AB1: E0 CC     LD (CC),A
0AB3: 3E 55     LD   A,55
0AB5: E0 01     LD (01),A
0AB7: 3E 80     LD   A,80
0AB9: E0 02     LD (02),A
0ABB: F0 CC     LD A,(CC)
0ABD: A7        AND  A
0ABE: 28        JR   Z,d
0ABF: FB        EI
0AC0: F0 01     LD A,(01)
0AC2: FE 29     CP   29
0AC4: 20 E7     JR   NZ,E7
0AC6: 06 00     LD   B,00
0AC8: 21 00 C3  LD   HL,C300
0ACB: AF        XOR  A
0ACC: E0 CC     LD (CC),A
0ACE: E0 01     LD (01),A
0AD0: 3E 80     LD   A,80
0AD2: E0 02     LD (02),A
0AD4: F0 CC     LD A,(CC)
0AD6: A7        AND  A
0AD7: 28        JR   Z,d
0AD8: FB        EI
0AD9: F0 01     LD A,(01)
0ADB: 22        LD (HLI),A
0ADC: 04        INC  B
0ADD: 20 EC     JR   NZ,EC
0ADF: CD 07 0B  CALL 0B07
0AE2: AF        XOR  A
0AE3: E0 CC     LD (CC),A
0AE5: 3E 56     LD   A,56
0AE7: E0 01     LD (01),A
0AE9: 3E 80     LD   A,80
0AEB: E0 02     LD (02),A
0AED: F0 CC     LD A,(CC)
0AEF: A7        AND  A
0AF0: 28        JR   Z,d
0AF1: FB        EI
0AF2: F0 01     LD A,(01)
0AF4: FE 30     CP   30
0AF6: 20 E7     JR   NZ,E7
0AF8: C3 35 0A  JP   0A35
0AFB: 21 42 CA  LD   HL,CA42
0AFE: 3E 80     LD   A,80
0B00: 06 0A     LD   B,0A
0B02: 22        LD (HLI),A
0B03: 05        DEC  B
0B04: 20 FC     JR   NZ,FC
0B06: C9        RET
0B07: C5        PUSH BC
0B08: 06 FA     LD   B,FA
0B0A: 40        LD   B,B
0B0B: 05        DEC  B
0B0C: 20 FC     JR   NZ,FC
0B0E: C1        POP  BC
0B0F: C9        RET
0B10: E5        PUSH HL
0B11: C5        PUSH BC
0B12: F0 FC     LD A,(FC)
0B14: E6 FC     AND  FC
0B16: 4F        LD   C,A
0B17: 26 03     LD   H,03
0B19: F0 04     LD A,(04)
0B1B: 47        LD   B,A
0B1C: AF        XOR  A
0B1D: 05        DEC  B
0B1E: 28        JR   Z,d
0B1F: 0A        LD   A,(BC)
0B20: 3C        INC  A
0B21: 3C        INC  A
0B22: 3C        INC  A
0B23: 3C        INC  A
0B24: FE 1C     CP   1C
0B26: 28        JR   Z,d
0B27: F4        NOP
0B28: 18        JR   d
0B29: F3        DI
0B2A: 57        LD   D,A
0B2B: F0 AE     LD A,(AE)
0B2D: 5F        LD   E,A
0B2E: 25        DEC  H
0B2F: 28        JR   Z,d
0B30: 07        RLCA
0B31: B2        OR   D
0B32: B1        OR   C
0B33: E6 FC     AND  FC
0B35: B9        CP   C
0B36: 28        JR   Z,d
0B37: E1        POP  HL
0B38: 7A        LD   A,D
0B39: E0 AE     LD (AE),A
0B3B: 7B        LD   A,E
0B3C: E0 FC     LD (FC),A
0B3E: C1        POP  BC
0B3F: E1        POP  HL
0B40: C9        RET
0B41: 3E 01     LD   A,01
0B43: E0 FF     LD (FF),A
0B45: F0 E3     LD A,(E3)
0B47: A7        AND  A
0B48: 20 1C     JR   NZ,1C
0B4A: 06 44     LD   B,44
0B4C: 0E 20     LD   C,20
0B4E: CD A3 11  CALL 11A3
0B51: 3E 02     LD   A,02
0B53: E0 CD     LD (CD),A
0B55: CD D7 26  CALL 26D7
0B58: CD EA 26  CALL 26EA
0B5B: CD 7B 15  CALL 157B
0B5E: AF        XOR  A
0B5F: E0 D6     LD (D6),A
0B61: 3E 1A     LD   A,1A
0B63: E0 E1     LD (E1),A
0B65: C9        RET
0B66: FE 05     CP   05
0B68: C0        RET  NZ
0B69: 21 30 C0  LD   HL,C030
0B6C: 06 12     LD   B,12
0B6E: 36 F0     LD   (HL),F0
0B70: 23        INC  HL
0B71: 36 10     LD   (HL),10
0B73: 23        INC  HL
0B74: 36 B6     LD   (HL),B6
0B76: 23        INC  HL
0B77: 36 80     LD   (HL),80
0B79: 23        INC  HL
0B7A: 05        DEC  B
0B7B: 20 F1     JR   NZ,F1
0B7D: FA FF C3  LD A,(C3FF)
0B80: 06 0A     LD   B,0A
0B82: 21 00 C4  LD   HL,C400
0B85: 3D        DEC  A
0B86: 28        JR   Z,d
0B87: 06 2C     LD   B,2C
0B89: 05        DEC  B
0B8A: 20 F9     JR   NZ,F9
0B8C: 18        JR   d
0B8D: F2        NOP
0B8E: 36 2F     LD   (HL),2F
0B90: 3E 03     LD   A,03
0B92: E0 CE     LD (CE),A
0B94: C9        RET
0B95: 3E 01     LD   A,01
0B97: E0 FF     LD (FF),A
0B99: 21 9C C0  LD   HL,C09C
0B9C: AF        XOR  A
0B9D: 22        LD (HLI),A
0B9E: 36 50     LD   (HL),50
0BA0: 2C        INC  L
0BA1: 36 27     LD   (HL),27
0BA3: 2C        INC  L
0BA4: 36 00     LD   (HL),00
0BA6: CD 68 1C  CALL 1C68
0BA9: CD E3 1C  CALL 1CE3
0BAC: CD 15 25  CALL 2515
0BAF: CD F7 20  CALL 20F7
0BB2: CD 99 21  CALL 2199
0BB5: CD F5 25  CALL 25F5
0BB8: CD AD 22  CALL 22AD
0BBB: CD FF 0B  CALL 0BFF
0BBE: F0 D5     LD A,(D5)
0BC0: A7        AND  A
0BC1: 28        JR   Z,d
0BC2: 14        INC  D
0BC3: 3E 77     LD   A,77
0BC5: E0 CF     LD (CF),A
0BC7: E0 B1     LD (B1),A
0BC9: 3E AA     LD   A,AA
0BCB: E0 D1     LD (D1),A
0BCD: 3E 1B     LD   A,1B
0BCF: E0 E1     LD (E1),A
0BD1: 3E 05     LD   A,05
0BD3: E0 A7     LD (A7),A
0BD5: 18        JR   d
0BD6: 10        STOP
0BD7: F0 E1     LD A,(E1)
0BD9: FE 01     CP   01
0BDB: 20 1B     JR   NZ,1B
0BDD: 3E AA     LD   A,AA
0BDF: E0 CF     LD (CF),A
0BE1: E0 B1     LD (B1),A
0BE3: 3E 77     LD   A,77
0BE5: E0 D1     LD (D1),A
0BE7: AF        XOR  A
0BE8: E0 DC     LD (DC),A
0BEA: E0 D2     LD (D2),A
0BEC: E0 D3     LD (D3),A
0BEE: E0 D4     LD (D4),A
0BF0: F0 CB     LD A,(CB)
0BF2: FE 29     CP   29
0BF4: 20 02     JR   NZ,02
0BF6: E0 CE     LD (CE),A
0BF8: CD 54 0C  CALL 0C54
0BFB: CD F0 0C  CALL 0CF0
0BFE: C9        RET
0BFF: 11 20 00  LD   DE,0020
0C02: 21 02 C8  LD   HL,C802
0C05: 3E 2F     LD   A,2F
0C07: 0E 12     LD   C,12
0C09: 06 0A     LD   B,0A
0C0B: E5        PUSH HL
0C0C: BE        CP   (HL)
0C0D: 20 0A     JR   NZ,0A
0C0F: 23        INC  HL
0C10: 05        DEC  B
0C11: 20 F9     JR   NZ,F9
0C13: E1        POP  HL
0C14: 19        ADD  HL,DE
0C15: 0D        DEC  C
0C16: 20 F1     JR   NZ,F1
0C18: E5        PUSH HL
0C19: E1        POP  HL
0C1A: 79        LD   A,C
0C1B: E0 B1     LD (B1),A
0C1D: FE 0C     CP   0C
0C1F: FA E9 DF  LD A,(DFE9)
0C22: 30        JR   NC,d
0C23: 07        RLCA
0C24: FE 08     CP   08
0C26: C0        RET  NZ
0C27: CD 7B 15  CALL 157B
0C2A: C9        RET
0C2B: FE 08     CP   08
0C2D: C8        RET  Z
0C2E: FA F0 DF  LD A,(DFF0)
0C31: FE 02     CP   02
0C33: C8        RET  Z
0C34: 3E 08     LD   A,08
0C36: EA E8 DF  LD (DFE8),A
0C39: C9        RET
0C3A: F0 CB     LD A,(CB)
0C3C: FE 29     CP   29
0C3E: 28        JR   Z,d
0C3F: 52        LD   D,D
0C40: 3E 01     LD   A,01
0C42: EA 7F DF  LD (DF7F),A
0C45: E0 AB     LD (AB),A
0C47: F0 CF     LD A,(CF)
0C49: E0 F1     LD (F1),A
0C4B: AF        XOR  A
0C4C: E0 F2     LD (F2),A
0C4E: E0 CF     LD (CF),A
0C50: CD 26 1D  CALL 1D26
0C53: C9        RET
0C54: F0 CC     LD A,(CC)
0C56: A7        AND  A
0C57: C8        RET  Z
0C58: 21 30 C0  LD   HL,C030
0C5B: 11 04 00  LD   DE,0004
0C5E: AF        XOR  A
0C5F: E0 CC     LD (CC),A
0C61: F0 D0     LD A,(D0)
0C63: FE AA     CP   AA
0C65: 28        JR   Z,d
0C66: 61        LD   H,C
0C67: FE 77     CP   77
0C69: 28        JR   Z,d
0C6A: 49        LD   C,C
0C6B: FE 94     CP   94
0C6D: 28        JR   Z,d
0C6E: CB        Prefix
0C6F: 47        LD   B,A
0C70: A7        AND  A
0C71: 28        JR   Z,d
0C72: 51        LD   D,C
0C73: CB        Prefix
0C74: 7F        LD   A,A
0C75: 20 6F     JR   NZ,6F
0C77: FE 13     CP   13
0C79: 30        JR   NC,d
0C7A: 17        RLA
0C7B: 3E 12     LD   A,12
0C7D: 90        SUB  B
0C7E: 4F        LD   C,A
0C7F: 0C        INC  C
0C80: 3E 98     LD   A,98
0C82: 77        LD   (HL),A
0C83: 19        ADD  HL,DE
0C84: D6 08     SUB  08
0C86: 05        DEC  B
0C87: 20 F9     JR   NZ,F9
0C89: 3E F0     LD   A,F0
0C8B: 0D        DEC  C
0C8C: 28        JR   Z,d
0C8D: 04        INC  B
0C8E: 77        LD   (HL),A
0C8F: 19        ADD  HL,DE
0C90: 18        JR   d
0C91: F9        LD   SP,HL
0C92: F0 DC     LD A,(DC)
0C94: A7        AND  A
0C95: 28        JR   Z,d
0C96: 07        RLCA
0C97: F6 80     OR   80
0C99: E0 B1     LD (B1),A
0C9B: AF        XOR  A
0C9C: E0 DC     LD (DC),A
0C9E: 3E FF     LD   A,FF
0CA0: E0 D0     LD (D0),A
0CA2: F0 CB     LD A,(CB)
0CA4: FE 29     CP   29
0CA6: F0 B1     LD A,(B1)
0CA8: 20 07     JR   NZ,07
0CAA: E0 CF     LD (CF),A
0CAC: 3E 01     LD   A,01
0CAE: E0 CE     LD (CE),A
0CB0: C9        RET
0CB1: E0 CF     LD (CF),A
0CB3: C9        RET
0CB4: F0 D1     LD A,(D1)
0CB6: FE AA     CP   AA
0CB8: 28        JR   Z,d
0CB9: 26 3E     LD   H,3E
0CBB: 77        LD   (HL),A
0CBC: E0 D1     LD (D1),A
0CBE: 3E 01     LD   A,01
0CC0: E0 E1     LD (E1),A
0CC2: 18        JR   d
0CC3: CE 0E     ADC  A,0E
0CC5: 13        INC  DE
0CC6: 18        JR   d
0CC7: C1        POP  BC
0CC8: F0 D1     LD A,(D1)
0CCA: FE 77     CP   77
0CCC: 28        JR   Z,d
0CCD: 12        LD   (DE),A
0CCE: 3E AA     LD   A,AA
0CD0: E0 D1     LD (D1),A
0CD2: 3E 1B     LD   A,1B
0CD4: E0 E1     LD (E1),A
0CD6: 3E 05     LD   A,05
0CD8: E0 A7     LD (A7),A
0CDA: 0E 01     LD   C,01
0CDC: 06 12     LD   B,12
0CDE: 18        JR   d
0CDF: A0        AND  B
0CE0: 3E 01     LD   A,01
0CE2: E0 EF     LD (EF),A
0CE4: 18        JR   d
0CE5: AC        XOR  H
0CE6: E6 7F     AND  7F
0CE8: FE 05     CP   05
0CEA: 30        JR   NC,d
0CEB: A6        AND  (HL)
0CEC: E0 D2     LD (D2),A
0CEE: 18        JR   d
0CEF: AE        XOR  (HL)
0CF0: F0 D3     LD A,(D3)
0CF2: A7        AND  A
0CF3: 28        JR   Z,d
0CF4: 07        RLCA
0CF5: CB        Prefix
0CF6: 7F        LD   A,A
0CF7: C8        RET  Z
0CF8: E6 07     AND  07
0CFA: 18        JR   d
0CFB: 0A        LD   A,(BC)
0CFC: F0 D2     LD A,(D2)
0CFE: A7        AND  A
0CFF: C8        RET  Z
0D00: E0 D3     LD (D3),A
0D02: AF        XOR  A
0D03: E0 D2     LD (D2),A
0D05: C9        RET
0D06: 4F        LD   C,A
0D07: C5        PUSH BC
0D08: 21 22 C8  LD   HL,C822
0D0B: 11 E0 FF  LD   DE,FFE0
0D0E: 19        ADD  HL,DE
0D0F: 0D        DEC  C
0D10: 20 FC     JR   NZ,FC
0D12: 11 22 C8  LD   DE,C822
0D15: 0E 11     LD   C,11
0D17: 06 0A     LD   B,0A
0D19: 1A        LD   A,(DE)
0D1A: 22        LD (HLI),A
0D1B: 1C        INC  E
0D1C: 05        DEC  B
0D1D: 20 FA     JR   NZ,FA
0D1F: D5        PUSH DE
0D20: 11 16 00  LD   DE,0016
0D23: 19        ADD  HL,DE
0D24: D1        POP  DE
0D25: E5        PUSH HL
0D26: 21 16 00  LD   HL,0016
0D29: 19        ADD  HL,DE
0D2A: E5        PUSH HL
0D2B: D1        POP  DE
0D2C: E1        POP  HL
0D2D: 0D        DEC  C
0D2E: 20 E7     JR   NZ,E7
0D30: C1        POP  BC
0D31: 11 00 C4  LD   DE,C400
0D34: 06 0A     LD   B,0A
0D36: 1A        LD   A,(DE)
0D37: 22        LD (HLI),A
0D38: 13        INC  DE
0D39: 05        DEC  B
0D3A: 20 FA     JR   NZ,FA
0D3C: D5        PUSH DE
0D3D: 11 16 00  LD   DE,0016
0D40: 19        ADD  HL,DE
0D41: D1        POP  DE
0D42: 0D        DEC  C
0D43: 20 EC     JR   NZ,EC
0D45: 3E 02     LD   A,02
0D47: E0 E3     LD (E3),A
0D49: E0 D4     LD (D4),A
0D4B: AF        XOR  A
0D4C: E0 D3     LD (D3),A
0D4E: C9        RET
0D4F: F0 A6     LD A,(A6)
0D51: A7        AND  A
0D52: C0        RET  NZ
0D53: 3E 01     LD   A,01
0D55: E0 FF     LD (FF),A
0D57: 3E 03     LD   A,03
0D59: E0 CD     LD (CD),A
0D5B: F0 D1     LD A,(D1)
0D5D: FE 77     CP   77
0D5F: 20 0C     JR   NZ,0C
0D61: F0 D0     LD A,(D0)
0D63: FE AA     CP   AA
0D65: 20 10     JR   NZ,10
0D67: 3E 01     LD   A,01
0D69: E0 EF     LD (EF),A
0D6B: 18        JR   d
0D6C: 0A        LD   A,(BC)
0D6D: FE AA     CP   AA
0D6F: 20 06     JR   NZ,06
0D71: F0 D0     LD A,(D0)
0D73: FE 77     CP   77
0D75: 28        JR   Z,d
0D76: F0 06     LD A,(06)
0D78: 34        INC  (HL)
0D79: 0E 43     LD   C,43
0D7B: CD A3 11  CALL 11A3
0D7E: AF        XOR  A
0D7F: E0 E3     LD (E3),A
0D81: F0 D1     LD A,(D1)
0D83: FE AA     CP   AA
0D85: 3E 1E     LD   A,1E
0D87: 20 02     JR   NZ,02
0D89: 3E 1D     LD   A,1D
0D8B: E0 E1     LD (E1),A
0D8D: 3E 28     LD   A,28
0D8F: E0 A6     LD (A6),A
0D91: 3E 1D     LD   A,1D
0D93: E0 C6     LD (C6),A
0D95: C9        RET
0D96: F0 A6     LD A,(A6)
0D98: A7        AND  A
0D99: C0        RET  NZ
0D9A: F0 EF     LD A,(EF)
0D9C: A7        AND  A
0D9D: 20 05     JR   NZ,05
0D9F: F0 D7     LD A,(D7)
0DA1: 3C        INC  A
0DA2: E0 D7     LD (D7),A
0DA4: CD D3 0F  CALL 0FD3
0DA7: 11 4D 27  LD   DE,274D
0DAA: F0 CB     LD A,(CB)
0DAC: FE 29     CP   29
0DAE: 28        JR   Z,d
0DAF: 03        INC  BC
0DB0: 11 5F 27  LD   DE,275F
0DB3: 21 00 C2  LD   HL,C200
0DB6: 0E 03     LD   C,03
0DB8: CD DA 17  CALL 17DA
0DBB: 3E 19     LD   A,19
0DBD: E0 A6     LD (A6),A
0DBF: F0 EF     LD A,(EF)
0DC1: A7        AND  A
0DC2: 28        JR   Z,d
0DC3: 05        DEC  B
0DC4: 21 20 C2  LD   HL,C220
0DC7: 36 80     LD   (HL),80
0DC9: 3E 03     LD   A,03
0DCB: CD C7 26  CALL 26C7
0DCE: 3E 20     LD   A,20
0DD0: E0 E1     LD (E1),A
0DD2: 3E 09     LD   A,09
0DD4: EA E8 DF  LD (DFE8),A
0DD7: F0 D7     LD A,(D7)
0DD9: FE 05     CP   05
0DDB: C0        RET  NZ
0DDC: 3E 11     LD   A,11
0DDE: EA E8 DF  LD (DFE8),A
0DE1: C9        RET
0DE2: F0 D7     LD A,(D7)
0DE4: FE 05     CP   05
0DE6: 20 07     JR   NZ,07
0DE8: F0 C6     LD A,(C6)
0DEA: A7        AND  A
0DEB: 28        JR   Z,d
0DEC: 08 18 22  LD (2218),SP
0DEF: F0 81     LD A,(81)
0DF1: CB        Prefix
0DF2: 5F        LD   E,A
0DF3: 28        JR   Z,d
0DF4: 1C        INC  E
0DF5: 3E 60     LD   A,60
0DF7: E0 CF     LD (CF),A
0DF9: E0 CE     LD (CE),A
0DFB: 18        JR   d
0DFC: 1D        DEC  E
0DFD: 3E 01     LD   A,01
0DFF: E0 FF     LD (FF),A
0E01: F0 CC     LD A,(CC)
0E03: 28        JR   Z,d
0E04: 0C        INC  C
0E05: F0 CB     LD A,(CB)
0E07: FE 29     CP   29
0E09: 28        JR   Z,d
0E0A: D7        RST  10H
0E0B: F0 D0     LD A,(D0)
0E0D: FE 60     CP   60
0E0F: 28        JR   Z,d
0E10: 09        ADD  HL,BC
0E11: CD 21 0E  CALL 0E21
0E14: 3E 03     LD   A,03
0E16: CD C7 26  CALL 26C7
0E19: C9        RET
0E1A: 3E 1F     LD   A,1F
0E1C: E0 E1     LD (E1),A
0E1E: E0 CC     LD (CC),A
0E20: C9        RET
0E21: F0 A6     LD A,(A6)
0E23: A7        AND  A
0E24: 20 23     JR   NZ,23
0E26: 21 C6 FF  LD   HL,FFC6
0E29: 35        DEC  (HL)
0E2A: 3E 19     LD   A,19
0E2C: E0 A6     LD (A6),A
0E2E: CD C4 0F  CALL 0FC4
0E31: 21 01 C2  LD   HL,C201
0E34: 7E        LD   A,(HL)
0E35: EE 30     XOR  30
0E37: 22        LD (HLI),A
0E38: FE 60     CP   60
0E3A: CC 7B 0F  CALL Z,0F7B
0E3D: 2C        INC  L
0E3E: F5        PUSH AF
0E3F: 7E        LD   A,(HL)
0E40: EE 01     XOR  01
0E42: 77        LD   (HL),A
0E43: 2E 13     LD   L,13
0E45: 32        LD (HLD),A
0E46: F1        POP  AF
0E47: 2D        DEC  L
0E48: 77        LD   (HL),A
0E49: F0 D7     LD A,(D7)
0E4B: FE 05     CP   05
0E4D: 20 28     JR   NZ,28
0E4F: F0 C6     LD A,(C6)
0E51: 21 21 C2  LD   HL,C221
0E54: FE 06     CP   06
0E56: 28        JR   Z,d
0E57: 1B        DEC  DE
0E58: FE 08     CP   08
0E5A: 30        JR   NC,d
0E5B: 1B        DEC  DE
0E5C: 7E        LD   A,(HL)
0E5D: FE 72     CP   72
0E5F: 30        JR   NC,d
0E60: 06 FE     LD   B,FE
0E62: 69        LD   L,C
0E63: C8        RET  Z
0E64: 34        INC  (HL)
0E65: 34        INC  (HL)
0E66: C9        RET
0E67: 36 69     LD   (HL),69
0E69: 2C        INC  L
0E6A: 2C        INC  L
0E6B: 36 57     LD   (HL),57
0E6D: 3E 06     LD   A,06
0E6F: EA E0 DF  LD (DFE0),A
0E72: C9        RET
0E73: 2D        DEC  L
0E74: 36 80     LD   (HL),80
0E76: C9        RET
0E77: F0 A7     LD A,(A7)
0E79: A7        AND  A
0E7A: C0        RET  NZ
0E7B: 3E 0F     LD   A,0F
0E7D: E0 A7     LD (A7),A
0E7F: 21 23 C2  LD   HL,C223
0E82: 7E        LD   A,(HL)
0E83: EE 01     XOR  01
0E85: 77        LD   (HL),A
0E86: C9        RET
0E87: F0 A6     LD A,(A6)
0E89: A7        AND  A
0E8A: C0        RET  NZ
0E8B: F0 EF     LD A,(EF)
0E8D: A7        AND  A
0E8E: 20 05     JR   NZ,05
0E90: F0 D8     LD A,(D8)
0E92: 3C        INC  A
0E93: E0 D8     LD (D8),A
0E95: CD D3 0F  CALL 0FD3
0E98: 11 71 27  LD   DE,2771
0E9B: F0 CB     LD A,(CB)
0E9D: FE 29     CP   29
0E9F: 28        JR   Z,d
0EA0: 03        INC  BC
0EA1: 11 7D 27  LD   DE,277D
0EA4: 21 00 C2  LD   HL,C200
0EA7: 0E 02     LD   C,02
0EA9: CD DA 17  CALL 17DA
0EAC: 3E 19     LD   A,19
0EAE: E0 A6     LD (A6),A
0EB0: F0 EF     LD A,(EF)
0EB2: A7        AND  A
0EB3: 28        JR   Z,d
0EB4: 05        DEC  B
0EB5: 21 10 C2  LD   HL,C210
0EB8: 36 80     LD   (HL),80
0EBA: 3E 02     LD   A,02
0EBC: CD C7 26  CALL 26C7
0EBF: 3E 21     LD   A,21
0EC1: E0 E1     LD (E1),A
0EC3: 3E 09     LD   A,09
0EC5: EA E8 DF  LD (DFE8),A
0EC8: F0 D8     LD A,(D8)
0ECA: FE 05     CP   05
0ECC: C0        RET  NZ
0ECD: 3E 11     LD   A,11
0ECF: EA E8 DF  LD (DFE8),A
0ED2: C9        RET
0ED3: F0 D8     LD A,(D8)
0ED5: FE 05     CP   05
0ED7: 20 07     JR   NZ,07
0ED9: F0 C6     LD A,(C6)
0EDB: A7        AND  A
0EDC: 28        JR   Z,d
0EDD: 08 18 22  LD (2218),SP
0EE0: F0 81     LD A,(81)
0EE2: CB        Prefix
0EE3: 5F        LD   E,A
0EE4: 28        JR   Z,d
0EE5: 1C        INC  E
0EE6: 3E 60     LD   A,60
0EE8: E0 CF     LD (CF),A
0EEA: E0 CE     LD (CE),A
0EEC: 18        JR   d
0EED: 1D        DEC  E
0EEE: 3E 01     LD   A,01
0EF0: E0 FF     LD (FF),A
0EF2: F0 CC     LD A,(CC)
0EF4: 28        JR   Z,d
0EF5: 0C        INC  C
0EF6: F0 CB     LD A,(CB)
0EF8: FE 29     CP   29
0EFA: 28        JR   Z,d
0EFB: D7        RST  10H
0EFC: F0 D0     LD A,(D0)
0EFE: FE 60     CP   60
0F00: 28        JR   Z,d
0F01: 09        ADD  HL,BC
0F02: CD 12 0F  CALL 0F12
0F05: 3E 02     LD   A,02
0F07: CD C7 26  CALL 26C7
0F0A: C9        RET
0F0B: 3E 1F     LD   A,1F
0F0D: E0 E1     LD (E1),A
0F0F: E0 CC     LD (CC),A
0F11: C9        RET
0F12: F0 A6     LD A,(A6)
0F14: A7        AND  A
0F15: 20 1C     JR   NZ,1C
0F17: 21 C6 FF  LD   HL,FFC6
0F1A: 35        DEC  (HL)
0F1B: 3E 19     LD   A,19
0F1D: E0 A6     LD (A6),A
0F1F: CD C4 0F  CALL 0FC4
0F22: 21 11 C2  LD   HL,C211
0F25: 7E        LD   A,(HL)
0F26: EE 08     XOR  08
0F28: 22        LD (HLI),A
0F29: FE 68     CP   68
0F2B: CC 7B 0F  CALL Z,0F7B
0F2E: 2C        INC  L
0F2F: 7E        LD   A,(HL)
0F30: EE 01     XOR  01
0F32: 77        LD   (HL),A
0F33: F0 D8     LD A,(D8)
0F35: FE 05     CP   05
0F37: 20 32     JR   NZ,32
0F39: F0 C6     LD A,(C6)
0F3B: 21 01 C2  LD   HL,C201
0F3E: FE 05     CP   05
0F40: 28        JR   Z,d
0F41: 25        DEC  H
0F42: FE 06     CP   06
0F44: 28        JR   Z,d
0F45: 11 FE 08  LD   DE,08FE
0F48: 30        JR   NC,d
0F49: 21 7E FE  LD   HL,FE7E
0F4C: 72        LD   (HL),D
0F4D: 30        JR   NC,d
0F4E: 18        JR   d
0F4F: FE 61     CP   61
0F51: C8        RET  Z
0F52: 34        INC  (HL)
0F53: 34        INC  (HL)
0F54: 34        INC  (HL)
0F55: 34        INC  (HL)
0F56: C9        RET
0F57: 2D        DEC  L
0F58: 36 00     LD   (HL),00
0F5A: 2C        INC  L
0F5B: 36 61     LD   (HL),61
0F5D: 2C        INC  L
0F5E: 2C        INC  L
0F5F: 36 56     LD   (HL),56
0F61: 3E 06     LD   A,06
0F63: EA E0 DF  LD (DFE0),A
0F66: C9        RET
0F67: 2D        DEC  L
0F68: 36 80     LD   (HL),80
0F6A: C9        RET
0F6B: F0 A7     LD A,(A7)
0F6D: A7        AND  A
0F6E: C0        RET  NZ
0F6F: 3E 0F     LD   A,0F
0F71: E0 A7     LD (A7),A
0F73: 21 03 C2  LD   HL,C203
0F76: 7E        LD   A,(HL)
0F77: EE 01     XOR  01
0F79: 77        LD   (HL),A
0F7A: C9        RET
0F7B: F5        PUSH AF
0F7C: E5        PUSH HL
0F7D: F0 D7     LD A,(D7)
0F7F: FE 05     CP   05
0F81: 28        JR   Z,d
0F82: 1A        LD   A,(DE)
0F83: F0 D8     LD A,(D8)
0F85: FE 05     CP   05
0F87: 28        JR   Z,d
0F88: 14        INC  D
0F89: F0 CB     LD A,(CB)
0F8B: FE 29     CP   29
0F8D: 20 0E     JR   NZ,0E
0F8F: 21 60 C0  LD   HL,C060
0F92: 06 24     LD   B,24
0F94: 11 A0 0F  LD   DE,0FA0
0F97: 1A        LD   A,(DE)
0F98: 22        LD (HLI),A
0F99: 13        INC  DE
0F9A: 05        DEC  B
0F9B: 20 FA     JR   NZ,FA
0F9D: E1        POP  HL
0F9E: F1        POP  AF
0F9F: C9        RET
0FA0: 42        LD   B,D
0FA1: 30        JR   NC,d
0FA2: 0D        DEC  C
0FA3: 00        NOP
0FA4: 42        LD   B,D
0FA5: 38        JR   C,d
0FA6: B2        OR   D
0FA7: 00        NOP
0FA8: 42        LD   B,D
0FA9: 40        LD   B,B
0FAA: 0E 00     LD   C,00
0FAC: 42        LD   B,D
0FAD: 48        LD   C,B
0FAE: 1C        INC  E
0FAF: 00        NOP
0FB0: 42        LD   B,D
0FB1: 58        LD   E,B
0FB2: 0E 00     LD   C,00
0FB4: 42        LD   B,D
0FB5: 60        LD   H,B
0FB6: 1D        DEC  E
0FB7: 00        NOP
0FB8: 42        LD   B,D
0FB9: 68        LD   L,B
0FBA: B5        OR   L
0FBB: 00        NOP
0FBC: 42        LD   B,D
0FBD: 70        LD   (HL),B
0FBE: BB        CP   E
0FBF: 00        NOP
0FC0: 42        LD   B,D
0FC1: 78        LD   A,B
0FC2: 1D        DEC  E
0FC3: 00        NOP
0FC4: 21 60 C0  LD   HL,C060
0FC7: 11 04 00  LD   DE,0004
0FCA: 06 09     LD   B,09
0FCC: AF        XOR  A
0FCD: 77        LD   (HL),A
0FCE: 19        ADD  HL,DE
0FCF: 05        DEC  B
0FD0: 20 FB     JR   NZ,FB
0FD2: C9        RET
0FD3: CD 74 28  CALL 2874
0FD6: 21 F4 55  LD   HL,55F4
0FD9: 01 00 10  LD   BC,1000
0FDC: CD 38 28  CALL 2838
0FDF: CD E9 27  CALL 27E9
0FE2: 21 00 98  LD   HL,9800
0FE5: 11 2C 55  LD   DE,552C
0FE8: 06 04     LD   B,04
0FEA: CD 44 28  CALL 2844
0FED: 21 80 99  LD   HL,9980
0FF0: 06 06     LD   B,06
0FF2: CD 44 28  CALL 2844
0FF5: F0 CB     LD A,(CB)
0FF7: FE 29     CP   29
0FF9: 20 22     JR   NZ,22
0FFB: 21 41 98  LD   HL,9841
0FFE: 36 BD     LD   (HL),BD
1000: 2C        INC  L
1001: 36 B2     LD   (HL),B2
1003: 2C        INC  L
1004: 36 2E     LD   (HL),2E
1006: 2C        INC  L
1007: 36 BE     LD   (HL),BE
1009: 2C        INC  L
100A: 36 2E     LD   (HL),2E
100C: 21 01 9A  LD   HL,9A01
100F: 36 B4     LD   (HL),B4
1011: 2C        INC  L
1012: 36 B5     LD   (HL),B5
1014: 2C        INC  L
1015: 36 BB     LD   (HL),BB
1017: 2C        INC  L
1018: 36 2E     LD   (HL),2E
101A: 2C        INC  L
101B: 36 BC     LD   (HL),BC
101D: F0 EF     LD A,(EF)
101F: A7        AND  A
1020: 20 03     JR   NZ,03
1022: CD E9 10  CALL 10E9
1025: F0 D7     LD A,(D7)
1027: A7        AND  A
1028: 28        JR   Z,d
1029: 49        LD   C,C
102A: FE 05     CP   05
102C: 20 16     JR   NZ,16
102E: 21 A5 98  LD   HL,98A5
1031: 06 0B     LD   B,0B
1033: F0 CB     LD A,(CB)
1035: FE 29     CP   29
1037: 11 57 11  LD   DE,1157
103A: 28        JR   Z,d
103B: 03        INC  BC
103C: 11 62 11  LD   DE,1162
103F: CD 3C 11  CALL 113C
1042: 3E 04     LD   A,04
1044: 4F        LD   C,A
1045: F0 CB     LD A,(CB)
1047: FE 29     CP   29
1049: 3E 93     LD   A,93
104B: 20 02     JR   NZ,02
104D: 3E 8F     LD   A,8F
104F: E0 A0     LD (A0),A
1051: 21 E7 99  LD   HL,99E7
1054: CD CE 10  CALL 10CE
1057: F0 D9     LD A,(D9)
1059: A7        AND  A
105A: 28        JR   Z,d
105B: 17        RLA
105C: 3E AC     LD   A,AC
105E: E0 A0     LD (A0),A
1060: 21 F0 99  LD   HL,99F0
1063: 0E 01     LD   C,01
1065: CD CE 10  CALL 10CE
1068: 21 A6 98  LD   HL,98A6
106B: 11 6D 11  LD   DE,116D
106E: 06 09     LD   B,09
1070: CD 3C 11  CALL 113C
1073: F0 D8     LD A,(D8)
1075: A7        AND  A
1076: 28        JR   Z,d
1077: 3E FE     LD   A,FE
1079: 05        DEC  B
107A: 20 16     JR   NZ,16
107C: 21 A5 98  LD   HL,98A5
107F: 06 0B     LD   B,0B
1081: F0 CB     LD A,(CB)
1083: FE 29     CP   29
1085: 11 62 11  LD   DE,1162
1088: 28        JR   Z,d
1089: 03        INC  BC
108A: 11 57 11  LD   DE,1157
108D: CD 3C 11  CALL 113C
1090: 3E 04     LD   A,04
1092: 4F        LD   C,A
1093: F0 CB     LD A,(CB)
1095: FE 29     CP   29
1097: 3E 8F     LD   A,8F
1099: 20 02     JR   NZ,02
109B: 3E 93     LD   A,93
109D: E0 A0     LD (A0),A
109F: 21 27 98  LD   HL,9827
10A2: CD CE 10  CALL 10CE
10A5: F0 DA     LD A,(DA)
10A7: A7        AND  A
10A8: 28        JR   Z,d
10A9: 0C        INC  C
10AA: 3E AC     LD   A,AC
10AC: E0 A0     LD (A0),A
10AE: 21 30 98  LD   HL,9830
10B1: 0E 01     LD   C,01
10B3: CD CE 10  CALL 10CE
10B6: F0 DB     LD A,(DB)
10B8: A7        AND  A
10B9: 28        JR   Z,d
10BA: 0B        DEC  BC
10BB: 21 A7 98  LD   HL,98A7
10BE: 11 51 11  LD   DE,1151
10C1: 06 06     LD   B,06
10C3: CD 3C 11  CALL 113C
10C6: 3E D3     LD   A,D3
10C8: E0 40     LD (40),A
10CA: CD EE 17  CALL 17EE
10CD: C9        RET
10CE: F0 A0     LD A,(A0)
10D0: E5        PUSH HL
10D1: 11 20 00  LD   DE,0020
10D4: 06 02     LD   B,02
10D6: E5        PUSH HL
10D7: 22        LD (HLI),A
10D8: 3C        INC  A
10D9: 77        LD   (HL),A
10DA: 3C        INC  A
10DB: E1        POP  HL
10DC: 19        ADD  HL,DE
10DD: 05        DEC  B
10DE: 20 F6     JR   NZ,F6
10E0: E1        POP  HL
10E1: 11 03 00  LD   DE,0003
10E4: 19        ADD  HL,DE
10E5: 0D        DEC  C
10E6: 20 E6     JR   NZ,E6
10E8: C9        RET
10E9: 21 D7 FF  LD   HL,FFD7
10EC: 11 D8 FF  LD   DE,FFD8
10EF: F0 D9     LD A,(D9)
10F1: A7        AND  A
10F2: 20 3A     JR   NZ,3A
10F4: F0 DA     LD A,(DA)
10F6: A7        AND  A
10F7: 20 3C     JR   NZ,3C
10F9: F0 DB     LD A,(DB)
10FB: A7        AND  A
10FC: 20 21     JR   NZ,21
10FE: 7E        LD   A,(HL)
10FF: FE 04     CP   04
1101: 28        JR   Z,d
1102: 11 1A FE  LD   DE,FE1A
1105: 04        INC  B
1106: C0        RET  NZ
1107: 3E 05     LD   A,05
1109: 12        LD   (DE),A
110A: 18        JR   d
110B: 0A        LD   A,(BC)
110C: 1A        LD   A,(DE)
110D: FE 03     CP   03
110F: C0        RET  NZ
1110: 3E 03     LD   A,03
1112: 18        JR   d
1113: 05        DEC  B
1114: 36 05     LD   (HL),05
1116: AF        XOR  A
1117: E0 DB     LD (DB),A
1119: AF        XOR  A
111A: E0 D9     LD (D9),A
111C: E0 DA     LD (DA),A
111E: C9        RET
111F: 7E        LD   A,(HL)
1120: FE 04     CP   04
1122: 20 06     JR   NZ,06
1124: E0 D9     LD (D9),A
1126: AF        XOR  A
1127: E0 DB     LD (DB),A
1129: C9        RET
112A: E0 DA     LD (DA),A
112C: 18        JR   d
112D: F8        LDHL SP,s
112E: 7E        LD   A,(HL)
112F: FE 05     CP   05
1131: 28        JR   Z,d
1132: E1        POP  HL
1133: 18        JR   d
1134: DB        NOP
1135: 1A        LD   A,(DE)
1136: FE 05     CP   05
1138: 28        JR   Z,d
1139: CD 18 D4  CALL D418
113C: C5        PUSH BC
113D: E5        PUSH HL
113E: 1A        LD   A,(DE)
113F: 22        LD (HLI),A
1140: 13        INC  DE
1141: 05        DEC  B
1142: 20 FA     JR   NZ,FA
1144: E1        POP  HL
1145: 11 20 00  LD   DE,0020
1148: 19        ADD  HL,DE
1149: C1        POP  BC
114A: 3E B6     LD   A,B6
114C: 22        LD (HLI),A
114D: 05        DEC  B
114E: 20 FC     JR   NZ,FC
1150: C9        RET
1151: B0        OR   B
1152: B1        OR   C
1153: B2        OR   D
1154: B3        OR   E
1155: B1        OR   C
1156: 3E B4     LD   A,B4
1158: B5        OR   L
1159: BB        CP   E
115A: 2E BC     LD   L,BC
115C: 2F        CPL
115D: 2D        DEC  L
115E: 2E 3D     LD   L,3D
1160: 0E 3E     LD   C,3E
1162: BD        CP   L
1163: B2        OR   D
1164: 2E BE     LD   L,BE
1166: 2E 2F     LD   L,2F
1168: 2D        DEC  L
1169: 2E 3D     LD   L,3D
116B: 0E 3E     LD   C,3E
116D: B5        OR   L
116E: B0        OR   B
116F: 41        LD   B,C
1170: B5        OR   L
1171: 3D        DEC  A
1172: 1D        DEC  E
1173: B5        OR   L
1174: BE        CP   (HL)
1175: B1        OR   C
1176: 3E 01     LD   A,01
1178: E0 FF     LD (FF),A
117A: F0 A6     LD A,(A6)
117C: A7        AND  A
117D: C0        RET  NZ
117E: CD EE 17  CALL 17EE
1181: AF        XOR  A
1182: E0 EF     LD (EF),A
1184: 06 27     LD   B,27
1186: 0E 79     LD   C,79
1188: CD A3 11  CALL 11A3
118B: CD F3 7F  CALL 7FF3
118E: F0 D7     LD A,(D7)
1190: FE 05     CP   05
1192: 28        JR   Z,d
1193: 0A        LD   A,(BC)
1194: F0 D8     LD A,(D8)
1196: FE 05     CP   05
1198: 28        JR   Z,d
1199: 04        INC  B
119A: 3E 01     LD   A,01
119C: E0 D6     LD (D6),A
119E: 3E 16     LD   A,16
11A0: E0 E1     LD (E1),A
11A2: C9        RET
11A3: F0 CC     LD A,(CC)
11A5: A7        AND  A
11A6: 28        JR   Z,d
11A7: 14        INC  D
11A8: AF        XOR  A
11A9: E0 CC     LD (CC),A
11AB: F0 CB     LD A,(CB)
11AD: FE 29     CP   29
11AF: F0 D0     LD A,(D0)
11B1: 20 11     JR   NZ,11
11B3: B8        CP   B
11B4: 28        JR   Z,d
11B5: 08 3E 02  LD (023E),SP
11B8: E0 CF     LD (CF),A
11BA: E0 CE     LD (CE),A
11BC: E1        POP  HL
11BD: C9        RET
11BE: 79        LD   A,C
11BF: E0 CF     LD (CF),A
11C1: E0 CE     LD (CE),A
11C3: C9        RET
11C4: B9        CP   C
11C5: C8        RET  Z
11C6: 78        LD   A,B
11C7: E0 CF     LD (CF),A
11C9: E1        POP  HL
11CA: C9        RET
11CB: CD 16 12  CALL 1216
11CE: 21 E6 9C  LD   HL,9CE6
11D1: 11 7F 14  LD   DE,147F
11D4: 06 07     LD   B,07
11D6: CD 9B 14  CALL 149B
11D9: 21 E7 9C  LD   HL,9CE7
11DC: 11 86 14  LD   DE,1486
11DF: 06 07     LD   B,07
11E1: CD 9B 14  CALL 149B
11E4: 21 08 9D  LD   HL,9D08
11E7: 36 72     LD   (HL),72
11E9: 2C        INC  L
11EA: 36 C4     LD   (HL),C4
11EC: 21 28 9D  LD   HL,9D28
11EF: 36 B7     LD   (HL),B7
11F1: 2C        INC  L
11F2: 36 B8     LD   (HL),B8
11F4: 11 C5 27  LD   DE,27C5
11F7: 21 00 C2  LD   HL,C200
11FA: 0E 03     LD   C,03
11FC: CD DA 17  CALL 17DA
11FF: 3E 03     LD   A,03
1201: CD C7 26  CALL 26C7
1204: 3E DB     LD   A,DB
1206: E0 40     LD (40),A
1208: 3E BB     LD   A,BB
120A: E0 A6     LD (A6),A
120C: 3E 27     LD   A,27
120E: E0 E1     LD (E1),A
1210: 3E 10     LD   A,10
1212: EA E8 DF  LD (DFE8),A
1215: C9        RET
1216: CD 74 28  CALL 2874
1219: 21 F4 55  LD   HL,55F4
121C: 01 00 10  LD   BC,1000
121F: CD 38 28  CALL 2838
1222: 21 FF 9F  LD   HL,9FFF
1225: CD EC 27  CALL 27EC
1228: 21 C0 9D  LD   HL,9DC0
122B: 11 0C 52  LD   DE,520C
122E: 06 04     LD   B,04
1230: CD 44 28  CALL 2844
1233: 21 EC 9C  LD   HL,9CEC
1236: 11 8D 14  LD   DE,148D
1239: 06 07     LD   B,07
123B: CD 9B 14  CALL 149B
123E: 21 ED 9C  LD   HL,9CED
1241: 11 94 14  LD   DE,1494
1244: 06 07     LD   B,07
1246: CD 9B 14  CALL 149B
1249: C9        RET
124A: F0 A6     LD A,(A6)
124C: A7        AND  A
124D: C0        RET  NZ
124E: 21 10 C2  LD   HL,C210
1251: 36 00     LD   (HL),00
1253: 2E 20     LD   L,20
1255: 36 00     LD   (HL),00
1257: 3E FF     LD   A,FF
1259: E0 A6     LD (A6),A
125B: 3E 28     LD   A,28
125D: E0 E1     LD (E1),A
125F: C9        RET
1260: F0 A6     LD A,(A6)
1262: A7        AND  A
1263: 28        JR   Z,d
1264: 04        INC  B
1265: CD 5E 14  CALL 145E
1268: C9        RET
1269: 3E 29     LD   A,29
126B: E0 E1     LD (E1),A
126D: 21 13 C2  LD   HL,C213
1270: 36 35     LD   (HL),35
1272: 2E 23     LD   L,23
1274: 36 35     LD   (HL),35
1276: 3E FF     LD   A,FF
1278: E0 A6     LD (A6),A
127A: 3E 2F     LD   A,2F
127C: CD 32 20  CALL 2032
127F: C9        RET
1280: F0 A6     LD A,(A6)
1282: A7        AND  A
1283: 28        JR   Z,d
1284: 04        INC  B
1285: CD 5E 14  CALL 145E
1288: C9        RET
1289: 3E 02     LD   A,02
128B: E0 E1     LD (E1),A
128D: 21 08 9D  LD   HL,9D08
1290: 06 2F     LD   B,2F
1292: CD 63 1A  CALL 1A63
1295: 21 09 9D  LD   HL,9D09
1298: CD 63 1A  CALL 1A63
129B: 21 28 9D  LD   HL,9D28
129E: CD 63 1A  CALL 1A63
12A1: 21 29 9D  LD   HL,9D29
12A4: CD 63 1A  CALL 1A63
12A7: C9        RET
12A8: F0 A6     LD A,(A6)
12AA: A7        AND  A
12AB: 20 2E     JR   NZ,2E
12AD: 3E 0A     LD   A,0A
12AF: E0 A6     LD (A6),A
12B1: 21 01 C2  LD   HL,C201
12B4: 35        DEC  (HL)
12B5: 7E        LD   A,(HL)
12B6: FE 58     CP   58
12B8: 20 21     JR   NZ,21
12BA: 21 10 C2  LD   HL,C210
12BD: 36 00     LD   (HL),00
12BF: 2C        INC  L
12C0: C6 20     ADD  A,20
12C2: 22        LD (HLI),A
12C3: 36 4C     LD   (HL),4C
12C5: 2C        INC  L
12C6: 36 40     LD   (HL),40
12C8: 2E 20     LD   L,20
12CA: 36 80     LD   (HL),80
12CC: 3E 03     LD   A,03
12CE: CD C7 26  CALL 26C7
12D1: 3E 03     LD   A,03
12D3: E0 E1     LD (E1),A
12D5: 3E 04     LD   A,04
12D7: EA F8 DF  LD (DFF8),A
12DA: C9        RET
12DB: CD 5E 14  CALL 145E
12DE: C9        RET
12DF: F0 A6     LD A,(A6)
12E1: A7        AND  A
12E2: 20 1D     JR   NZ,1D
12E4: 3E 0A     LD   A,0A
12E6: E0 A6     LD (A6),A
12E8: 21 11 C2  LD   HL,C211
12EB: 35        DEC  (HL)
12EC: 2E 01     LD   L,01
12EE: 35        DEC  (HL)
12EF: 7E        LD   A,(HL)
12F0: FE D0     CP   D0
12F2: 20 0D     JR   NZ,0D
12F4: 3E 9C     LD   A,9C
12F6: E0 C9     LD (C9),A
12F8: 3E 82     LD   A,82
12FA: E0 CA     LD (CA),A
12FC: 3E 2C     LD   A,2C
12FE: E0 E1     LD (E1),A
1300: C9        RET
1301: F0 A7     LD A,(A7)
1303: A7        AND  A
1304: 20 0B     JR   NZ,0B
1306: 3E 06     LD   A,06
1308: E0 A7     LD (A7),A
130A: 21 13 C2  LD   HL,C213
130D: 7E        LD   A,(HL)
130E: EE 01     XOR  01
1310: 77        LD   (HL),A
1311: 3E 03     LD   A,03
1313: CD C7 26  CALL 26C7
1316: C9        RET
1317: F0 A6     LD A,(A6)
1319: A7        AND  A
131A: C0        RET  NZ
131B: 3E 06     LD   A,06
131D: E0 A6     LD (A6),A
131F: F0 CA     LD A,(CA)
1321: D6 82     SUB  82
1323: 5F        LD   E,A
1324: 16 00     LD   D,00
1326: 21 59 13  LD   HL,1359
1329: 19        ADD  HL,DE
132A: E5        PUSH HL
132B: D1        POP  DE
132C: F0 C9     LD A,(C9)
132E: 67        LD   H,A
132F: F0 CA     LD A,(CA)
1331: 6F        LD   L,A
1332: 1A        LD   A,(DE)
1333: CD 62 1A  CALL 1A62
1336: E5        PUSH HL
1337: 11 20 00  LD   DE,0020
133A: 19        ADD  HL,DE
133B: 06 B6     LD   B,B6
133D: CD 63 1A  CALL 1A63
1340: E1        POP  HL
1341: 23        INC  HL
1342: 3E 02     LD   A,02
1344: EA E0 DF  LD (DFE0),A
1347: 7C        LD   A,H
1348: E0 C9     LD (C9),A
134A: 7D        LD   A,L
134B: E0 CA     LD (CA),A
134D: FE 92     CP   92
134F: C0        RET  NZ
1350: 3E FF     LD   A,FF
1352: E0 A6     LD (A6),A
1354: 3E 2D     LD   A,2D
1356: E0 E1     LD (E1),A
1358: C9        RET
1359: B3        OR   E
135A: BC        CP   H
135B: 3D        DEC  A
135C: BE        CP   (HL)
135D: BB        CP   E
135E: B5        OR   L
135F: 1D        DEC  E
1360: B2        OR   D
1361: BD        CP   L
1362: B5        OR   L
1363: 1D        DEC  E
1364: 2E BC     LD   L,BC
1366: 3D        DEC  A
1367: 0E 3E     LD   C,3E
1369: F0 A6     LD A,(A6)
136B: A7        AND  A
136C: C0        RET  NZ
136D: CD 74 28  CALL 2874
1370: CD 01 28  CALL 2801
1373: CD F3 22  CALL 22F3
1376: 3E 93     LD   A,93
1378: E0 40     LD (40),A
137A: 3E 05     LD   A,05
137C: E0 E1     LD (E1),A
137E: C9        RET
137F: F0 A6     LD A,(A6)
1381: A7        AND  A
1382: C0        RET  NZ
1383: 3E 2E     LD   A,2E
1385: E0 E1     LD (E1),A
1387: C9        RET
1388: CD 16 12  CALL 1216
138B: 11 D7 27  LD   DE,27D7
138E: 21 00 C2  LD   HL,C200
1391: 0E 03     LD   C,03
1393: CD DA 17  CALL 17DA
1396: F0 F3     LD A,(F3)
1398: EA 03 C2  LD (C203),A
139B: 3E 03     LD   A,03
139D: CD C7 26  CALL 26C7
13A0: AF        XOR  A
13A1: E0 F3     LD (F3),A
13A3: 3E DB     LD   A,DB
13A5: E0 40     LD (40),A
13A7: 3E BB     LD   A,BB
13A9: E0 A6     LD (A6),A
13AB: 3E 2F     LD   A,2F
13AD: E0 E1     LD (E1),A
13AF: 3E 10     LD   A,10
13B1: EA E8 DF  LD (DFE8),A
13B4: C9        RET
13B5: F0 A6     LD A,(A6)
13B7: A7        AND  A
13B8: C0        RET  NZ
13B9: 21 10 C2  LD   HL,C210
13BC: 36 00     LD   (HL),00
13BE: 2E 20     LD   L,20
13C0: 36 00     LD   (HL),00
13C2: 3E A0     LD   A,A0
13C4: E0 A6     LD (A6),A
13C6: 3E 30     LD   A,30
13C8: E0 E1     LD (E1),A
13CA: C9        RET
13CB: F0 A6     LD A,(A6)
13CD: A7        AND  A
13CE: 28        JR   Z,d
13CF: 04        INC  B
13D0: CD 5E 14  CALL 145E
13D3: C9        RET
13D4: 3E 31     LD   A,31
13D6: E0 E1     LD (E1),A
13D8: 3E 80     LD   A,80
13DA: E0 A6     LD (A6),A
13DC: 3E 2F     LD   A,2F
13DE: CD 32 20  CALL 2032
13E1: C9        RET
13E2: F0 A6     LD A,(A6)
13E4: A7        AND  A
13E5: 20 2E     JR   NZ,2E
13E7: 3E 0A     LD   A,0A
13E9: E0 A6     LD (A6),A
13EB: 21 01 C2  LD   HL,C201
13EE: 35        DEC  (HL)
13EF: 7E        LD   A,(HL)
13F0: FE 6A     CP   6A
13F2: 20 21     JR   NZ,21
13F4: 21 10 C2  LD   HL,C210
13F7: 36 00     LD   (HL),00
13F9: 2C        INC  L
13FA: C6 10     ADD  A,10
13FC: 22        LD (HLI),A
13FD: 36 54     LD   (HL),54
13FF: 2C        INC  L
1400: 36 5C     LD   (HL),5C
1402: 2E 20     LD   L,20
1404: 36 80     LD   (HL),80
1406: 3E 03     LD   A,03
1408: CD C7 26  CALL 26C7
140B: 3E 32     LD   A,32
140D: E0 E1     LD (E1),A
140F: 3E 04     LD   A,04
1411: EA F8 DF  LD (DFF8),A
1414: C9        RET
1415: CD 5E 14  CALL 145E
1418: C9        RET
1419: F0 A6     LD A,(A6)
141B: A7        AND  A
141C: 20 15     JR   NZ,15
141E: 3E 0A     LD   A,0A
1420: E0 A6     LD (A6),A
1422: 21 11 C2  LD   HL,C211
1425: 35        DEC  (HL)
1426: 2E 01     LD   L,01
1428: 35        DEC  (HL)
1429: 7E        LD   A,(HL)
142A: FE E0     CP   E0
142C: 20 05     JR   NZ,05
142E: 3E 33     LD   A,33
1430: E0 E1     LD (E1),A
1432: C9        RET
1433: F0 A7     LD A,(A7)
1435: A7        AND  A
1436: 20 0B     JR   NZ,0B
1438: 3E 06     LD   A,06
143A: E0 A7     LD (A7),A
143C: 21 13 C2  LD   HL,C213
143F: 7E        LD   A,(HL)
1440: EE 01     XOR  01
1442: 77        LD   (HL),A
1443: 3E 03     LD   A,03
1445: CD C7 26  CALL 26C7
1448: C9        RET
1449: CD 74 28  CALL 2874
144C: CD 01 28  CALL 2801
144F: CD F3 7F  CALL 7FF3
1452: CD F3 22  CALL 22F3
1455: 3E 93     LD   A,93
1457: E0 40     LD (40),A
1459: 3E 10     LD   A,10
145B: E0 E1     LD (E1),A
145D: C9        RET
145E: F0 A7     LD A,(A7)
1460: A7        AND  A
1461: C0        RET  NZ
1462: 3E 0A     LD   A,0A
1464: E0 A7     LD (A7),A
1466: 3E 03     LD   A,03
1468: EA F8 DF  LD (DFF8),A
146B: 06 02     LD   B,02
146D: 21 10 C2  LD   HL,C210
1470: 7E        LD   A,(HL)
1471: EE 80     XOR  80
1473: 77        LD   (HL),A
1474: 2E 20     LD   L,20
1476: 05        DEC  B
1477: 20 F7     JR   NZ,F7
1479: 3E 03     LD   A,03
147B: CD C7 26  CALL 26C7
147E: C9        RET
147F: C2 CA CA  JP   NZ,CACA
1482: CA CA CA  JP   Z,CACA
1485: CA C3 CB  JP   Z,CBC3
1488: 58        LD   E,B
1489: 48        LD   C,B
148A: 48        LD   C,B
148B: 48        LD   C,B
148C: 48        LD   C,B
148D: C8        RET  Z
148E: 73        LD   (HL),E
148F: 73        LD   (HL),E
1490: 73        LD   (HL),E
1491: 73        LD   (HL),E
1492: 73        LD   (HL),E
1493: 73        LD   (HL),E
1494: C9        RET
1495: 74        LD   (HL),H
1496: 74        LD   (HL),H
1497: 74        LD   (HL),H
1498: 74        LD   (HL),H
1499: 74        LD   (HL),H
149A: 74        LD   (HL),H
149B: 1A        LD   A,(DE)
149C: 77        LD   (HL),A
149D: 13        INC  DE
149E: D5        PUSH DE
149F: 11 20 00  LD   DE,0020
14A2: 19        ADD  HL,DE
14A3: D1        POP  DE
14A4: 05        DEC  B
14A5: 20 F4     JR   NZ,F4
14A7: C9        RET
14A8: 3E 01     LD   A,01
14AA: E0 FF     LD (FF),A
14AC: AF        XOR  A
14AD: E0 01     LD (01),A
14AF: E0 02     LD (02),A
14B1: E0 0F     LD (0F),A
14B3: CD 74 28  CALL 2874
14B6: CD 01 28  CALL 2801
14B9: 11 1F 4D  LD   DE,4D1F
14BC: CD 3F 28  CALL 283F
14BF: CD EE 17  CALL 17EE
14C2: 21 00 C2  LD   HL,C200
14C5: 11 23 27  LD   DE,2723
14C8: 0E 02     LD   C,02
14CA: CD DA 17  CALL 17DA
14CD: 11 01 C2  LD   DE,C201
14D0: CD F1 14  CALL 14F1
14D3: F0 C0     LD A,(C0)
14D5: 1E 12     LD   E,12
14D7: 12        LD   (DE),A
14D8: 13        INC  DE
14D9: FE 37     CP   37
14DB: 3E 1C     LD   A,1C
14DD: 28        JR   Z,d
14DE: 02        LD   (BC),A
14DF: 3E 1D     LD   A,1D
14E1: 12        LD   (DE),A
14E2: CD C5 26  CALL 26C5
14E5: CD 7B 15  CALL 157B
14E8: 3E D3     LD   A,D3
14EA: E0 40     LD (40),A
14EC: 3E 0E     LD   A,0E
14EE: E0 E1     LD (E1),A
14F0: C9        RET
14F1: 3E 01     LD   A,01
14F3: EA E0 DF  LD (DFE0),A
14F6: F0 C1     LD A,(C1)
14F8: F5        PUSH AF
14F9: D6 1C     SUB  1C
14FB: 87        ADD  A,A
14FC: 4F        LD   C,A
14FD: 06 00     LD   B,00
14FF: 21 0C 15  LD   HL,150C
1502: 09        ADD  HL,BC
1503: 2A        LD A,(HLI)
1504: 12        LD   (DE),A
1505: 13        INC  DE
1506: 7E        LD   A,(HL)
1507: 12        LD   (DE),A
1508: 13        INC  DE
1509: F1        POP  AF
150A: 12        LD   (DE),A
150B: C9        RET
150C: 70        LD   (HL),B
150D: 37        SCF
150E: 70        LD   (HL),B
150F: 77        LD   (HL),A
1510: 80        ADD  A,B
1511: 37        SCF
1512: 80        ADD  A,B
1513: 77        LD   (HL),A
1514: 11 00 C2  LD   DE,C200
1517: CD CA 17  CALL 17CA
151A: 21 C1 FF  LD   HL,FFC1
151D: 7E        LD   A,(HL)
151E: CB        Prefix
151F: 58        LD   E,B
1520: C2 C7 15  JP   NZ,15C7
1523: CB        Prefix
1524: 40        LD   B,B
1525: C2 C7 15  JP   NZ,15C7
1528: CB        Prefix
1529: 48        LD   C,B
152A: 20 41     JR   NZ,41
152C: 1C        INC  E
152D: CB        Prefix
152E: 60        LD   H,B
152F: 20 26     JR   NZ,26
1531: CB        Prefix
1532: 68        LD   L,B
1533: 20 2D     JR   NZ,2D
1535: CB        Prefix
1536: 70        LD   (HL),B
1537: 20 16     JR   NZ,16
1539: CB        Prefix
153A: 78        LD   A,B
153B: CA C3 15  JP   Z,15C3
153E: FE 1E     CP   1E
1540: 30        JR   NC,d
1541: 09        ADD  HL,BC
1542: C6 02     ADD  A,02
1544: 77        LD   (HL),A
1545: CD F1 14  CALL 14F1
1548: CD 7B 15  CALL 157B
154B: CD C5 26  CALL 26C5
154E: C9        RET
154F: FE 1E     CP   1E
1551: 38        JR   C,d
1552: F8        LDHL SP,s
1553: D6 02     SUB  02
1555: 18        JR   d
1556: ED        Prefix
1557: FE 1D     CP   1D
1559: 28        JR   Z,d
155A: F0 FE     LD A,(FE)
155C: 1F        RRA
155D: 28        JR   Z,d
155E: EC        NOP
155F: 3C        INC  A
1560: 18        JR   d
1561: E2        LD (C),A
1562: FE 1C     CP   1C
1564: 28        JR   Z,d
1565: E5        PUSH HL
1566: FE 1E     CP   1E
1568: 28        JR   Z,d
1569: E1        POP  HL
156A: 3D        DEC  A
156B: 18        JR   d
156C: D7        RST  10H
156D: F5        PUSH AF
156E: F0 C5     LD A,(C5)
1570: A7        AND  A
1571: 28        JR   Z,d
1572: 03        INC  BC
1573: F1        POP  AF
1574: 18        JR   d
1575: B6        OR   (HL)
1576: F1        POP  AF
1577: 3E 0E     LD   A,0E
1579: 18        JR   d
157A: 5B        LD   E,E
157B: F0 C1     LD A,(C1)
157D: D6 17     SUB  17
157F: FE 08     CP   08
1581: 20 02     JR   NZ,02
1583: 3E FF     LD   A,FF
1585: EA E8 DF  LD (DFE8),A
1588: C9        RET
1589: 11 10 C2  LD   DE,C210
158C: CD CA 17  CALL 17CA
158F: 21 C0 FF  LD   HL,FFC0
1592: 7E        LD   A,(HL)
1593: CB        Prefix
1594: 58        LD   E,B
1595: 20 30     JR   NZ,30
1597: CB        Prefix
1598: 40        LD   B,B
1599: 20 40     JR   NZ,40
159B: 1C        INC  E
159C: 1C        INC  E
159D: CB        Prefix
159E: 60        LD   H,B
159F: 20 0E     JR   NZ,0E
15A1: CB        Prefix
15A2: 68        LD   L,B
15A3: 28        JR   Z,d
15A4: 1E FE     LD   E,FE
15A6: 37        SCF
15A7: 28        JR   Z,d
15A8: 1A        LD   A,(DE)
15A9: 3E 37     LD   A,37
15AB: 06 1C     LD   B,1C
15AD: 18        JR   d
15AE: 08 FE 77  LD (77FE),SP
15B1: 28        JR   Z,d
15B2: 10        STOP
15B3: 3E 77     LD   A,77
15B5: 06 1D     LD   B,1D
15B7: 77        LD   (HL),A
15B8: F5        PUSH AF
15B9: 3E 01     LD   A,01
15BB: EA E0 DF  LD (DFE0),A
15BE: F1        POP  AF
15BF: 12        LD   (DE),A
15C0: 13        INC  DE
15C1: 78        LD   A,B
15C2: 12        LD   (DE),A
15C3: CD C5 26  CALL 26C5
15C6: C9        RET
15C7: 3E 02     LD   A,02
15C9: EA E0 DF  LD (DFE0),A
15CC: F0 C0     LD A,(C0)
15CE: FE 37     CP   37
15D0: 3E 10     LD   A,10
15D2: 28        JR   Z,d
15D3: 02        LD   (BC),A
15D4: 3E 12     LD   A,12
15D6: E0 E1     LD (E1),A
15D8: AF        XOR  A
15D9: 18        JR   d
15DA: E7        RST  20H
15DB: 3E 0F     LD   A,0F
15DD: 18        JR   d
15DE: F7        RST  30H
15DF: CD 74 28  CALL 2874
15E2: 11 87 4E  LD   DE,4E87
15E5: CD 3F 28  CALL 283F
15E8: CD 60 19  CALL 1960
15EB: CD EE 17  CALL 17EE
15EE: 21 00 C2  LD   HL,C200
15F1: 11 2F 27  LD   DE,272F
15F4: 0E 01     LD   C,01
15F6: CD DA 17  CALL 17DA
15F9: 11 01 C2  LD   DE,C201
15FC: F0 C2     LD A,(C2)
15FE: 21 79 16  LD   HL,1679
1601: CD B2 17  CALL 17B2
1604: CD C5 26  CALL 26C5
1607: CD F9 17  CALL 17F9
160A: CD 2E 19  CALL 192E
160D: 3E D3     LD   A,D3
160F: E0 40     LD (40),A
1611: 3E 11     LD   A,11
1613: E0 E1     LD (E1),A
1615: F0 C7     LD A,(C7)
1617: A7        AND  A
1618: 20 04     JR   NZ,04
161A: CD 7B 15  CALL 157B
161D: C9        RET
161E: 3E 15     LD   A,15
1620: E0 E1     LD (E1),A
1622: C9        RET
1623: 11 00 C2  LD   DE,C200
1626: CD CA 17  CALL 17CA
1629: 21 C2 FF  LD   HL,FFC2
162C: 3E 0A     LD   A,0A
162E: CB        Prefix
162F: 58        LD   E,B
1630: 20 EE     JR   NZ,EE
1632: CB        Prefix
1633: 40        LD   B,B
1634: 20 EA     JR   NZ,EA
1636: 3E 08     LD   A,08
1638: CB        Prefix
1639: 48        LD   C,B
163A: 20 E4     JR   NZ,E4
163C: 7E        LD   A,(HL)
163D: CB        Prefix
163E: 60        LD   H,B
163F: 20 14     JR   NZ,14
1641: CB        Prefix
1642: 68        LD   L,B
1643: 20 26     JR   NZ,26
1645: CB        Prefix
1646: 70        LD   (HL),B
1647: 20 28     JR   NZ,28
1649: CB        Prefix
164A: 78        LD   A,B
164B: 28        JR   Z,d
164C: 1A        LD   A,(DE)
164D: FE 05     CP   05
164F: 30        JR   NC,d
1650: 16 C6     LD   D,C6
1652: 05        DEC  B
1653: 18        JR   d
1654: 05        DEC  B
1655: FE 09     CP   09
1657: 28        JR   Z,d
1658: 0E 3C     LD   C,3C
165A: 77        LD   (HL),A
165B: 11 01 C2  LD   DE,C201
165E: 21 79 16  LD   HL,1679
1661: CD B2 17  CALL 17B2
1664: CD F9 17  CALL 17F9
1667: CD C5 26  CALL 26C5
166A: C9        RET
166B: A7        AND  A
166C: 28        JR   Z,d
166D: F9        LD   SP,HL
166E: 3D        DEC  A
166F: 18        JR   d
1670: E9        JP   (HL)
1671: FE 05     CP   05
1673: 38        JR   C,d
1674: F2        NOP
1675: D6 05     SUB  05
1677: 18        JR   d
1678: E1        POP  HL
1679: 40        LD   B,B
167A: 30        JR   NC,d
167B: 40        LD   B,B
167C: 40        LD   B,B
167D: 40        LD   B,B
167E: 50        LD   D,B
167F: 40        LD   B,B
1680: 60        LD   H,B
1681: 40        LD   B,B
1682: 70        LD   (HL),B
1683: 50        LD   D,B
1684: 30        JR   NC,d
1685: 50        LD   D,B
1686: 40        LD   B,B
1687: 50        LD   D,B
1688: 50        LD   D,B
1689: 50        LD   D,B
168A: 60        LD   H,B
168B: 50        LD   D,B
168C: 70        LD   (HL),B
168D: CD 74 28  CALL 2874
1690: 11 EF 4F  LD   DE,4FEF
1693: CD 3F 28  CALL 283F
1696: CD EE 17  CALL 17EE
1699: 21 00 C2  LD   HL,C200
169C: 11 35 27  LD   DE,2735
169F: 0E 02     LD   C,02
16A1: CD DA 17  CALL 17DA
16A4: 11 01 C2  LD   DE,C201
16A7: F0 C3     LD A,(C3)
16A9: 21 36 17  LD   HL,1736
16AC: CD B2 17  CALL 17B2
16AF: 11 11 C2  LD   DE,C211
16B2: F0 C4     LD A,(C4)
16B4: 21 A5 17  LD   HL,17A5
16B7: CD B2 17  CALL 17B2
16BA: CD C5 26  CALL 26C5
16BD: CD 13 18  CALL 1813
16C0: CD 2E 19  CALL 192E
16C3: 3E D3     LD   A,D3
16C5: E0 40     LD (40),A
16C7: 3E 13     LD   A,13
16C9: E0 E1     LD (E1),A
16CB: F0 C7     LD A,(C7)
16CD: A7        AND  A
16CE: 20 04     JR   NZ,04
16D0: CD 7B 15  CALL 157B
16D3: C9        RET
16D4: 3E 15     LD   A,15
16D6: E0 E1     LD (E1),A
16D8: C9        RET
16D9: E0 E1     LD (E1),A
16DB: AF        XOR  A
16DC: 12        LD   (DE),A
16DD: C9        RET
16DE: 11 00 C2  LD   DE,C200
16E1: CD CA 17  CALL 17CA
16E4: 21 C3 FF  LD   HL,FFC3
16E7: 3E 0A     LD   A,0A
16E9: CB        Prefix
16EA: 58        LD   E,B
16EB: 20 EC     JR   NZ,EC
16ED: 3E 14     LD   A,14
16EF: CB        Prefix
16F0: 40        LD   B,B
16F1: 20 E6     JR   NZ,E6
16F3: 3E 08     LD   A,08
16F5: CB        Prefix
16F6: 48        LD   C,B
16F7: 20 E0     JR   NZ,E0
16F9: 7E        LD   A,(HL)
16FA: CB        Prefix
16FB: 60        LD   H,B
16FC: 20 14     JR   NZ,14
16FE: CB        Prefix
16FF: 68        LD   L,B
1700: 20 26     JR   NZ,26
1702: CB        Prefix
1703: 70        LD   (HL),B
1704: 20 28     JR   NZ,28
1706: CB        Prefix
1707: 78        LD   A,B
1708: 28        JR   Z,d
1709: 1A        LD   A,(DE)
170A: FE 05     CP   05
170C: 30        JR   NC,d
170D: 16 C6     LD   D,C6
170F: 05        DEC  B
1710: 18        JR   d
1711: 05        DEC  B
1712: FE 09     CP   09
1714: 28        JR   Z,d
1715: 0E 3C     LD   C,3C
1717: 77        LD   (HL),A
1718: 11 01 C2  LD   DE,C201
171B: 21 36 17  LD   HL,1736
171E: CD B2 17  CALL 17B2
1721: CD 13 18  CALL 1813
1724: CD C5 26  CALL 26C5
1727: C9        RET
1728: A7        AND  A
1729: 28        JR   Z,d
172A: F9        LD   SP,HL
172B: 3D        DEC  A
172C: 18        JR   d
172D: E9        JP   (HL)
172E: FE 05     CP   05
1730: 38        JR   C,d
1731: F2        NOP
1732: D6 05     SUB  05
1734: 18        JR   d
1735: E1        POP  HL
1736: 40        LD   B,B
1737: 18        JR   d
1738: 40        LD   B,B
1739: 28        JR   Z,d
173A: 40        LD   B,B
173B: 38        JR   C,d
173C: 40        LD   B,B
173D: 48        LD   C,B
173E: 40        LD   B,B
173F: 58        LD   E,B
1740: 50        LD   D,B
1741: 18        JR   d
1742: 50        LD   D,B
1743: 28        JR   Z,d
1744: 50        LD   D,B
1745: 38        JR   C,d
1746: 50        LD   D,B
1747: 48        LD   C,B
1748: 50        LD   D,B
1749: 58        LD   E,B
174A: E0 E1     LD (E1),A
174C: AF        XOR  A
174D: 12        LD   (DE),A
174E: C9        RET
174F: 11 10 C2  LD   DE,C210
1752: CD CA 17  CALL 17CA
1755: 21 C4 FF  LD   HL,FFC4
1758: 3E 0A     LD   A,0A
175A: CB        Prefix
175B: 58        LD   E,B
175C: 20 EC     JR   NZ,EC
175E: CB        Prefix
175F: 40        LD   B,B
1760: 20 E8     JR   NZ,E8
1762: 3E 13     LD   A,13
1764: CB        Prefix
1765: 48        LD   C,B
1766: 20 E2     JR   NZ,E2
1768: 7E        LD   A,(HL)
1769: CB        Prefix
176A: 60        LD   H,B
176B: 20 14     JR   NZ,14
176D: CB        Prefix
176E: 68        LD   L,B
176F: 20 26     JR   NZ,26
1771: CB        Prefix
1772: 70        LD   (HL),B
1773: 20 28     JR   NZ,28
1775: CB        Prefix
1776: 78        LD   A,B
1777: 28        JR   Z,d
1778: 1A        LD   A,(DE)
1779: FE 03     CP   03
177B: 30        JR   NC,d
177C: 16 C6     LD   D,C6
177E: 03        INC  BC
177F: 18        JR   d
1780: 05        DEC  B
1781: FE 05     CP   05
1783: 28        JR   Z,d
1784: 0E 3C     LD   C,3C
1786: 77        LD   (HL),A
1787: 11 11 C2  LD   DE,C211
178A: 21 A5 17  LD   HL,17A5
178D: CD B2 17  CALL 17B2
1790: CD 13 18  CALL 1813
1793: CD C5 26  CALL 26C5
1796: C9        RET
1797: A7        AND  A
1798: 28        JR   Z,d
1799: F9        LD   SP,HL
179A: 3D        DEC  A
179B: 18        JR   d
179C: E9        JP   (HL)
179D: FE 03     CP   03
179F: 38        JR   C,d
17A0: F2        NOP
17A1: D6 03     SUB  03
17A3: 18        JR   d
17A4: E1        POP  HL
17A5: 40        LD   B,B
17A6: 70        LD   (HL),B
17A7: 40        LD   B,B
17A8: 80        ADD  A,B
17A9: 40        LD   B,B
17AA: 90        SUB  B
17AB: 50        LD   D,B
17AC: 70        LD   (HL),B
17AD: 50        LD   D,B
17AE: 80        ADD  A,B
17AF: 50        LD   D,B
17B0: 90        SUB  B
17B1: 00        NOP
17B2: F5        PUSH AF
17B3: 3E 01     LD   A,01
17B5: EA E0 DF  LD (DFE0),A
17B8: F1        POP  AF
17B9: F5        PUSH AF
17BA: 87        ADD  A,A
17BB: 4F        LD   C,A
17BC: 06 00     LD   B,00
17BE: 09        ADD  HL,BC
17BF: 2A        LD A,(HLI)
17C0: 12        LD   (DE),A
17C1: 13        INC  DE
17C2: 7E        LD   A,(HL)
17C3: 12        LD   (DE),A
17C4: 13        INC  DE
17C5: F1        POP  AF
17C6: C6 20     ADD  A,20
17C8: 12        LD   (DE),A
17C9: C9        RET
17CA: F0 81     LD A,(81)
17CC: 47        LD   B,A
17CD: F0 A6     LD A,(A6)
17CF: A7        AND  A
17D0: C0        RET  NZ
17D1: 3E 10     LD   A,10
17D3: E0 A6     LD (A6),A
17D5: 1A        LD   A,(DE)
17D6: EE 80     XOR  80
17D8: 12        LD   (DE),A
17D9: C9        RET
17DA: E5        PUSH HL
17DB: 06 06     LD   B,06
17DD: 1A        LD   A,(DE)
17DE: 22        LD (HLI),A
17DF: 13        INC  DE
17E0: 05        DEC  B
17E1: 20 FA     JR   NZ,FA
17E3: E1        POP  HL
17E4: 3E 10     LD   A,10
17E6: 85        ADD  A,L
17E7: 6F        LD   L,A
17E8: 0D        DEC  C
17E9: 20 EF     JR   NZ,EF
17EB: 36 80     LD   (HL),80
17ED: C9        RET
17EE: AF        XOR  A
17EF: 21 00 C0  LD   HL,C000
17F2: 06 A0     LD   B,A0
17F4: 22        LD (HLI),A
17F5: 05        DEC  B
17F6: 20 FC     JR   NZ,FC
17F8: C9        RET
17F9: CD 60 19  CALL 1960
17FC: F0 C2     LD A,(C2)
17FE: 21 54 D6  LD   HL,D654
1801: 11 1B 00  LD   DE,001B
1804: A7        AND  A
1805: 28        JR   Z,d
1806: 04        INC  B
1807: 3D        DEC  A
1808: 19        ADD  HL,DE
1809: 18        JR   d
180A: F9        LD   SP,HL
180B: 23        INC  HL
180C: 23        INC  HL
180D: E5        PUSH HL
180E: D1        POP  DE
180F: CD 64 18  CALL 1864
1812: C9        RET
1813: CD 60 19  CALL 1960
1816: F0 C3     LD A,(C3)
1818: 21 00 D0  LD   HL,D000
181B: 11 A2 00  LD   DE,00A2
181E: A7        AND  A
181F: 28        JR   Z,d
1820: 04        INC  B
1821: 3D        DEC  A
1822: 19        ADD  HL,DE
1823: 18        JR   d
1824: F9        LD   SP,HL
1825: F0 C4     LD A,(C4)
1827: 11 1B 00  LD   DE,001B
182A: A7        AND  A
182B: 28        JR   Z,d
182C: 04        INC  B
182D: 3D        DEC  A
182E: 19        ADD  HL,DE
182F: 18        JR   d
1830: F9        LD   SP,HL
1831: 23        INC  HL
1832: 23        INC  HL
1833: E5        PUSH HL
1834: D1        POP  DE
1835: CD 64 18  CALL 1864
1838: C9        RET
1839: 06 03     LD   B,03
183B: 7E        LD   A,(HL)
183C: E6 F0     AND  F0
183E: 20 0B     JR   NZ,0B
1840: 1C        INC  E
1841: 3A        LD A,(HLD)
1842: E6 0F     AND  0F
1844: 20 0F     JR   NZ,0F
1846: 1C        INC  E
1847: 05        DEC  B
1848: 20 F1     JR   NZ,F1
184A: C9        RET
184B: 7E        LD   A,(HL)
184C: E6 F0     AND  F0
184E: CB        Prefix
184F: 37        SCF
1850: 12        LD   (DE),A
1851: 1C        INC  E
1852: 3A        LD A,(HLD)
1853: E6 0F     AND  0F
1855: 12        LD   (DE),A
1856: 1C        INC  E
1857: 05        DEC  B
1858: 20 F1     JR   NZ,F1
185A: C9        RET
185B: 06 03     LD   B,03
185D: 3A        LD A,(HLD)
185E: 12        LD   (DE),A
185F: 1B        DEC  DE
1860: 05        DEC  B
1861: 20 FA     JR   NZ,FA
1863: C9        RET
1864: 7A        LD   A,D
1865: E0 FB     LD (FB),A
1867: 7B        LD   A,E
1868: E0 FC     LD (FC),A
186A: 0E 03     LD   C,03
186C: 21 A2 C0  LD   HL,C0A2
186F: D5        PUSH DE
1870: 06 03     LD   B,03
1872: 1A        LD   A,(DE)
1873: 96        SUB  (HL)
1874: 38        JR   C,d
1875: 10        STOP
1876: 20 05     JR   NZ,05
1878: 2D        DEC  L
1879: 1B        DEC  DE
187A: 05        DEC  B
187B: 20 F5     JR   NZ,F5
187D: D1        POP  DE
187E: 13        INC  DE
187F: 13        INC  DE
1880: 13        INC  DE
1881: 0D        DEC  C
1882: 20 E8     JR   NZ,E8
1884: 18        JR   d
1885: 5E        LD   E,(HL)
1886: D1        POP  DE
1887: F0 FB     LD A,(FB)
1889: 57        LD   D,A
188A: F0 FC     LD A,(FC)
188C: 5F        LD   E,A
188D: D5        PUSH DE
188E: C5        PUSH BC
188F: 21 06 00  LD   HL,0006
1892: 19        ADD  HL,DE
1893: E5        PUSH HL
1894: D1        POP  DE
1895: 2B        DEC  HL
1896: 2B        DEC  HL
1897: 2B        DEC  HL
1898: 0D        DEC  C
1899: 28        JR   Z,d
189A: 05        DEC  B
189B: CD 5B 18  CALL 185B
189E: 18        JR   d
189F: F8        LDHL SP,s
18A0: 21 A2 C0  LD   HL,C0A2
18A3: 06 03     LD   B,03
18A5: 3A        LD A,(HLD)
18A6: 12        LD   (DE),A
18A7: 1D        DEC  E
18A8: 05        DEC  B
18A9: 20 FA     JR   NZ,FA
18AB: C1        POP  BC
18AC: D1        POP  DE
18AD: 79        LD   A,C
18AE: E0 C8     LD (C8),A
18B0: 21 12 00  LD   HL,0012
18B3: 19        ADD  HL,DE
18B4: E5        PUSH HL
18B5: 11 06 00  LD   DE,0006
18B8: 19        ADD  HL,DE
18B9: E5        PUSH HL
18BA: D1        POP  DE
18BB: E1        POP  HL
18BC: 0D        DEC  C
18BD: 28        JR   Z,d
18BE: 07        RLCA
18BF: 06 06     LD   B,06
18C1: CD 5D 18  CALL 185D
18C4: 18        JR   d
18C5: F6 3E     OR   3E
18C7: 60        LD   H,B
18C8: 06 05     LD   B,05
18CA: 12        LD   (DE),A
18CB: 1B        DEC  DE
18CC: 05        DEC  B
18CD: 20 FB     JR   NZ,FB
18CF: 3E 0A     LD   A,0A
18D1: 12        LD   (DE),A
18D2: 7A        LD   A,D
18D3: E0 C9     LD (C9),A
18D5: 7B        LD   A,E
18D6: E0 CA     LD (CA),A
18D8: AF        XOR  A
18D9: E0 9C     LD (9C),A
18DB: E0 C6     LD (C6),A
18DD: 3E 01     LD   A,01
18DF: EA E8 DF  LD (DFE8),A
18E2: E0 C7     LD (C7),A
18E4: 11 AC C9  LD   DE,C9AC
18E7: F0 FB     LD A,(FB)
18E9: 67        LD   H,A
18EA: F0 FC     LD A,(FC)
18EC: 6F        LD   L,A
18ED: 06 03     LD   B,03
18EF: E5        PUSH HL
18F0: D5        PUSH DE
18F1: C5        PUSH BC
18F2: CD 39 18  CALL 1839
18F5: C1        POP  BC
18F6: D1        POP  DE
18F7: 21 20 00  LD   HL,0020
18FA: 19        ADD  HL,DE
18FB: E5        PUSH HL
18FC: D1        POP  DE
18FD: E1        POP  HL
18FE: D5        PUSH DE
18FF: 11 03 00  LD   DE,0003
1902: 19        ADD  HL,DE
1903: D1        POP  DE
1904: 05        DEC  B
1905: 20 E8     JR   NZ,E8
1907: 2B        DEC  HL
1908: 2B        DEC  HL
1909: 06 03     LD   B,03
190B: 11 A4 C9  LD   DE,C9A4
190E: D5        PUSH DE
190F: 0E 06     LD   C,06
1911: 2A        LD A,(HLI)
1912: A7        AND  A
1913: 28        JR   Z,d
1914: 05        DEC  B
1915: 12        LD   (DE),A
1916: 13        INC  DE
1917: 0D        DEC  C
1918: 20 F7     JR   NZ,F7
191A: D1        POP  DE
191B: E5        PUSH HL
191C: 21 20 00  LD   HL,0020
191F: 19        ADD  HL,DE
1920: E5        PUSH HL
1921: D1        POP  DE
1922: E1        POP  HL
1923: 05        DEC  B
1924: 20 E8     JR   NZ,E8
1926: CD A5 26  CALL 26A5
1929: 3E 01     LD   A,01
192B: E0 E8     LD (E8),A
192D: C9        RET
192E: F0 E8     LD A,(E8)
1930: A7        AND  A
1931: C8        RET  Z
1932: 21 A4 99  LD   HL,99A4
1935: 11 A4 C9  LD   DE,C9A4
1938: 0E 06     LD   C,06
193A: E5        PUSH HL
193B: 06 06     LD   B,06
193D: 1A        LD   A,(DE)
193E: 22        LD (HLI),A
193F: 1C        INC  E
1940: 05        DEC  B
1941: 20 FA     JR   NZ,FA
1943: 1C        INC  E
1944: 2C        INC  L
1945: 1C        INC  E
1946: 2C        INC  L
1947: 0D        DEC  C
1948: 28        JR   Z,d
1949: 11 CB 41  LD   DE,41CB
194C: 20 ED     JR   NZ,ED
194E: E1        POP  HL
194F: 11 20 00  LD   DE,0020
1952: 19        ADD  HL,DE
1953: E5        PUSH HL
1954: D1        POP  DE
1955: 3E 30     LD   A,30
1957: 82        ADD  A,D
1958: 57        LD   D,A
1959: 18        JR   d
195A: DF        RST  18H
195B: E1        POP  HL
195C: AF        XOR  A
195D: E0 E8     LD (E8),A
195F: C9        RET
1960: 21 A4 C9  LD   HL,C9A4
1963: 11 20 00  LD   DE,0020
1966: 3E 60     LD   A,60
1968: 0E 03     LD   C,03
196A: 06 0E     LD   B,0E
196C: E5        PUSH HL
196D: 22        LD (HLI),A
196E: 05        DEC  B
196F: 20 FC     JR   NZ,FC
1971: E1        POP  HL
1972: 19        ADD  HL,DE
1973: 0D        DEC  C
1974: 20 F4     JR   NZ,F4
1976: C9        RET
1977: F0 C8     LD A,(C8)
1979: 21 E4 99  LD   HL,99E4
197C: 11 E0 FF  LD   DE,FFE0
197F: 3D        DEC  A
1980: 28        JR   Z,d
1981: 03        INC  BC
1982: 19        ADD  HL,DE
1983: 18        JR   d
1984: FA F0 C6  LD A,(C6F0)
1987: 5F        LD   E,A
1988: 16 00     LD   D,00
198A: 19        ADD  HL,DE
198B: F0 C9     LD A,(C9)
198D: 57        LD   D,A
198E: F0 CA     LD A,(CA)
1990: 5F        LD   E,A
1991: F0 A6     LD A,(A6)
1993: A7        AND  A
1994: 20 12     JR   NZ,12
1996: 3E 07     LD   A,07
1998: E0 A6     LD (A6),A
199A: F0 9C     LD A,(9C)
199C: EE 01     XOR  01
199E: E0 9C     LD (9C),A
19A0: 1A        LD   A,(DE)
19A1: 28        JR   Z,d
19A2: 02        LD   (BC),A
19A3: 3E 2F     LD   A,2F
19A5: CD 62 1A  CALL 1A62
19A8: F0 81     LD A,(81)
19AA: 47        LD   B,A
19AB: F0 80     LD A,(80)
19AD: 4F        LD   C,A
19AE: 3E 17     LD   A,17
19B0: CB        Prefix
19B1: 70        LD   (HL),B
19B2: 20 37     JR   NZ,37
19B4: CB        Prefix
19B5: 71        LD   (HL),C
19B6: 20 2B     JR   NZ,2B
19B8: CB        Prefix
19B9: 78        LD   A,B
19BA: 20 58     JR   NZ,58
19BC: CB        Prefix
19BD: 79        LD   A,C
19BE: 20 4C     JR   NZ,4C
19C0: CB        Prefix
19C1: 40        LD   B,B
19C2: 20 6C     JR   NZ,6C
19C4: CB        Prefix
19C5: 48        LD   C,B
19C6: C2 52 1A  JP   NZ,1A52
19C9: CB        Prefix
19CA: 58        LD   E,B
19CB: C8        RET  Z
19CC: 1A        LD   A,(DE)
19CD: CD 62 1A  CALL 1A62
19D0: CD 7B 15  CALL 157B
19D3: AF        XOR  A
19D4: E0 C7     LD (C7),A
19D6: F0 C0     LD A,(C0)
19D8: FE 37     CP   37
19DA: 3E 11     LD   A,11
19DC: 28        JR   Z,d
19DD: 02        LD   (BC),A
19DE: 3E 13     LD   A,13
19E0: E0 E1     LD (E1),A
19E2: C9        RET
19E3: F0 AA     LD A,(AA)
19E5: 3D        DEC  A
19E6: E0 AA     LD (AA),A
19E8: C0        RET  NZ
19E9: 3E 09     LD   A,09
19EB: E0 AA     LD (AA),A
19ED: 06 26     LD   B,26
19EF: F0 F4     LD A,(F4)
19F1: A7        AND  A
19F2: 28        JR   Z,d
19F3: 02        LD   (BC),A
19F4: 06 27     LD   B,27
19F6: 1A        LD   A,(DE)
19F7: B8        CP   B
19F8: 20 0A     JR   NZ,0A
19FA: 3E 2E     LD   A,2E
19FC: 3C        INC  A
19FD: 12        LD   (DE),A
19FE: 3E 01     LD   A,01
1A00: EA E0 DF  LD (DFE0),A
1A03: C9        RET
1A04: FE 2F     CP   2F
1A06: 20 F4     JR   NZ,F4
1A08: 3E 0A     LD   A,0A
1A0A: 18        JR   d
1A0B: F1        POP  AF
1A0C: F0 AA     LD A,(AA)
1A0E: 3D        DEC  A
1A0F: E0 AA     LD (AA),A
1A11: C0        RET  NZ
1A12: 3E 09     LD   A,09
1A14: E0 AA     LD (AA),A
1A16: 06 26     LD   B,26
1A18: F0 F4     LD A,(F4)
1A1A: A7        AND  A
1A1B: 28        JR   Z,d
1A1C: 02        LD   (BC),A
1A1D: 06 27     LD   B,27
1A1F: 1A        LD   A,(DE)
1A20: FE 0A     CP   0A
1A22: 20 05     JR   NZ,05
1A24: 3E 30     LD   A,30
1A26: 3D        DEC  A
1A27: 18        JR   d
1A28: D4 FE 2F  CALL NC,2FFE
1A2B: 20 F9     JR   NZ,F9
1A2D: 78        LD   A,B
1A2E: 18        JR   d
1A2F: CD 1A CD  CALL CD1A
1A32: 62        LD   H,D
1A33: 1A        LD   A,(DE)
1A34: 3E 02     LD   A,02
1A36: EA E0 DF  LD (DFE0),A
1A39: F0 C6     LD A,(C6)
1A3B: 3C        INC  A
1A3C: FE 06     CP   06
1A3E: 28        JR   Z,d
1A3F: 8C        ADC  A,H
1A40: E0 C6     LD (C6),A
1A42: 13        INC  DE
1A43: 1A        LD   A,(DE)
1A44: FE 60     CP   60
1A46: 20 03     JR   NZ,03
1A48: 3E 0A     LD   A,0A
1A4A: 12        LD   (DE),A
1A4B: 7A        LD   A,D
1A4C: E0 C9     LD (C9),A
1A4E: 7B        LD   A,E
1A4F: E0 CA     LD (CA),A
1A51: C9        RET
1A52: F0 C6     LD A,(C6)
1A54: A7        AND  A
1A55: C8        RET  Z
1A56: 1A        LD   A,(DE)
1A57: CD 62 1A  CALL 1A62
1A5A: F0 C6     LD A,(C6)
1A5C: 3D        DEC  A
1A5D: E0 C6     LD (C6),A
1A5F: 1B        DEC  DE
1A60: 18        JR   d
1A61: E9        JP   (HL)
1A62: 47        LD   B,A
1A63: F0 41     LD A,(41)
1A65: E6 03     AND  03
1A67: 20 FA     JR   NZ,FA
1A69: 70        LD   (HL),B
1A6A: C9        RET
1A6B: CD 74 28  CALL 2874
1A6E: AF        XOR  A
1A6F: EA 10 C2  LD (C210),A
1A72: E0 98     LD (98),A
1A74: E0 9C     LD (9C),A
1A76: E0 9B     LD (9B),A
1A78: E0 FB     LD (FB),A
1A7A: E0 9F     LD (9F),A
1A7C: 3E 2F     LD   A,2F
1A7E: CD 32 20  CALL 2032
1A81: CD 4D 20  CALL 204D
1A84: CD A5 26  CALL 26A5
1A87: AF        XOR  A
1A88: E0 E3     LD (E3),A
1A8A: E0 E7     LD (E7),A
1A8C: CD EE 17  CALL 17EE
1A8F: F0 C0     LD A,(C0)
1A91: 11 3F 40  LD   DE,403F
1A94: 21 C3 FF  LD   HL,FFC3
1A97: FE 77     CP   77
1A99: 3E 50     LD   A,50
1A9B: 28        JR   Z,d
1A9C: 08 3E F1  LD (F13E),SP
1A9F: 21 C2 FF  LD   HL,FFC2
1AA2: 11 D7 3E  LD   DE,3ED7
1AA5: D5        PUSH DE
1AA6: E0 E6     LD (E6),A
1AA8: 7E        LD   A,(HL)
1AA9: E0 A9     LD (A9),A
1AAB: CD 3F 28  CALL 283F
1AAE: D1        POP  DE
1AAF: 21 00 9C  LD   HL,9C00
1AB2: CD 42 28  CALL 2842
1AB5: 11 8D 28  LD   DE,288D
1AB8: 21 63 9C  LD   HL,9C63
1ABB: 0E 0A     LD   C,0A
1ABD: CD D8 1F  CALL 1FD8
1AC0: 26 98     LD   H,98
1AC2: F0 E6     LD A,(E6)
1AC4: 6F        LD   L,A
1AC5: F0 A9     LD A,(A9)
1AC7: 77        LD   (HL),A
1AC8: 26 9C     LD   H,9C
1ACA: 77        LD   (HL),A
1ACB: F0 F4     LD A,(F4)
1ACD: A7        AND  A
1ACE: 28        JR   Z,d
1ACF: 07        RLCA
1AD0: 23        INC  HL
1AD1: 36 27     LD   (HL),27
1AD3: 26 98     LD   H,98
1AD5: 36 27     LD   (HL),27
1AD7: 21 00 C2  LD   HL,C200
1ADA: 11 13 27  LD   DE,2713
1ADD: CD 0A 27  CALL 270A
1AE0: 21 10 C2  LD   HL,C210
1AE3: 11 1B 27  LD   DE,271B
1AE6: CD 0A 27  CALL 270A
1AE9: 21 51 99  LD   HL,9951
1AEC: F0 C0     LD A,(C0)
1AEE: FE 77     CP   77
1AF0: 3E 25     LD   A,25
1AF2: 28        JR   Z,d
1AF3: 01 AF E0  LD   BC,E0AF
1AF6: 9E        SBC  A,(HL)
1AF7: E6 0F     AND  0F
1AF9: 32        LD (HLD),A
1AFA: 28        JR   Z,d
1AFB: 02        LD   (BC),A
1AFC: 36 02     LD   (HL),02
1AFE: CD 43 1B  CALL 1B43
1B01: CD 62 20  CALL 2062
1B04: CD 62 20  CALL 2062
1B07: CD 62 20  CALL 2062
1B0A: CD D7 26  CALL 26D7
1B0D: AF        XOR  A
1B0E: E0 A0     LD (A0),A
1B10: F0 C0     LD A,(C0)
1B12: FE 77     CP   77
1B14: 20 25     JR   NZ,25
1B16: 3E 34     LD   A,34
1B18: E0 99     LD (99),A
1B1A: F0 C4     LD A,(C4)
1B1C: 21 B0 98  LD   HL,98B0
1B1F: 77        LD   (HL),A
1B20: 26 9C     LD   H,9C
1B22: 77        LD   (HL),A
1B23: A7        AND  A
1B24: 28        JR   Z,d
1B25: 15        DEC  D
1B26: 47        LD   B,A
1B27: F0 E4     LD A,(E4)
1B29: A7        AND  A
1B2A: 28        JR   Z,d
1B2B: 05        DEC  B
1B2C: CD 76 1B  CALL 1B76
1B2F: 18        JR   d
1B30: 0A        LD   A,(BC)
1B31: 78        LD   A,B
1B32: 11 C0 FF  LD   DE,FFC0
1B35: 21 02 9A  LD   HL,9A02
1B38: CD C3 1B  CALL 1BC3
1B3B: 3E D3     LD   A,D3
1B3D: E0 40     LD (40),A
1B3F: AF        XOR  A
1B40: E0 E1     LD (E1),A
1B42: C9        RET
1B43: F0 A9     LD A,(A9)
1B45: 5F        LD   E,A
1B46: F0 F4     LD A,(F4)
1B48: A7        AND  A
1B49: 28        JR   Z,d
1B4A: 0A        LD   A,(BC)
1B4B: 3E 0A     LD   A,0A
1B4D: 83        ADD  A,E
1B4E: FE 15     CP   15
1B50: 38        JR   C,d
1B51: 02        LD   (BC),A
1B52: 3E 14     LD   A,14
1B54: 5F        LD   E,A
1B55: 21 61 1B  LD   HL,1B61
1B58: 16 00     LD   D,00
1B5A: 19        ADD  HL,DE
1B5B: 7E        LD   A,(HL)
1B5C: E0 99     LD (99),A
1B5E: E0 9A     LD (9A),A
1B60: C9        RET
1B61: 34        INC  (HL)
1B62: 30        JR   NC,d
1B63: 2C        INC  L
1B64: 28        JR   Z,d
1B65: 24        INC  H
1B66: 20 1B     JR   NZ,1B
1B68: 15        DEC  D
1B69: 10        STOP
1B6A: 0A        LD   A,(BC)
1B6B: 09        ADD  HL,BC
1B6C: 08 07 06  LD (0607),SP
1B6F: 05        DEC  B
1B70: 05        DEC  B
1B71: 04        INC  B
1B72: 04        INC  B
1B73: 03        INC  BC
1B74: 03        INC  BC
1B75: 02        LD   (BC),A
1B76: 21 C2 99  LD   HL,99C2
1B79: 11 9B 1B  LD   DE,1B9B
1B7C: 0E 04     LD   C,04
1B7E: 06 0A     LD   B,0A
1B80: E5        PUSH HL
1B81: 1A        LD   A,(DE)
1B82: 77        LD   (HL),A
1B83: E5        PUSH HL
1B84: 7C        LD   A,H
1B85: C6 30     ADD  A,30
1B87: 67        LD   H,A
1B88: 1A        LD   A,(DE)
1B89: 77        LD   (HL),A
1B8A: E1        POP  HL
1B8B: 2C        INC  L
1B8C: 13        INC  DE
1B8D: 05        DEC  B
1B8E: 20 F1     JR   NZ,F1
1B90: E1        POP  HL
1B91: D5        PUSH DE
1B92: 11 20 00  LD   DE,0020
1B95: 19        ADD  HL,DE
1B96: D1        POP  DE
1B97: 0D        DEC  C
1B98: 20 E4     JR   NZ,E4
1B9A: C9        RET
1B9B: 85        ADD  A,L
1B9C: 2F        CPL
1B9D: 82        ADD  A,D
1B9E: 86        ADD  A,(HL)
1B9F: 83        ADD  A,E
1BA0: 2F        CPL
1BA1: 2F        CPL
1BA2: 80        ADD  A,B
1BA3: 82        ADD  A,D
1BA4: 85        ADD  A,L
1BA5: 2F        CPL
1BA6: 82        ADD  A,D
1BA7: 84        ADD  A,H
1BA8: 82        ADD  A,D
1BA9: 83        ADD  A,E
1BAA: 2F        CPL
1BAB: 83        ADD  A,E
1BAC: 2F        CPL
1BAD: 87        ADD  A,A
1BAE: 2F        CPL
1BAF: 2F        CPL
1BB0: 85        ADD  A,L
1BB1: 2F        CPL
1BB2: 83        ADD  A,E
1BB3: 2F        CPL
1BB4: 86        ADD  A,(HL)
1BB5: 82        ADD  A,D
1BB6: 80        ADD  A,B
1BB7: 81        ADD  A,C
1BB8: 2F        CPL
1BB9: 83        ADD  A,E
1BBA: 2F        CPL
1BBB: 86        ADD  A,(HL)
0100 :> 
